---
triple:          'x86_64-apple-darwin'
binary-path:     shell
relocations:
  - { offsetInCU: 0x3B, offset: 0x3B, size: 0x8, addend: 0x0, symName: _.str, symObjAddr: 0x18E60, symBinAddr: 0x1000485E0, symSize: 0x0 }
  - { offsetInCU: 0x6B, offset: 0x6B, size: 0x8, addend: 0x0, symName: _.str.1, symObjAddr: 0x1BAA0, symBinAddr: 0x100051DE0, symSize: 0x0 }
  - { offsetInCU: 0x88, offset: 0x88, size: 0x8, addend: 0x0, symName: _.str.2, symObjAddr: 0x1BAC0, symBinAddr: 0x100051E00, symSize: 0x0 }
  - { offsetInCU: 0xA5, offset: 0xA5, size: 0x8, addend: 0x0, symName: _.str.3, symObjAddr: 0x1BAE0, symBinAddr: 0x100051E20, symSize: 0x0 }
  - { offsetInCU: 0xC2, offset: 0xC2, size: 0x8, addend: 0x0, symName: _.str.4, symObjAddr: 0x1BB00, symBinAddr: 0x100051E40, symSize: 0x0 }
  - { offsetInCU: 0xD3, offset: 0xD3, size: 0x8, addend: 0x0, symName: _.str.5, symObjAddr: 0x1BB20, symBinAddr: 0x100051E60, symSize: 0x0 }
  - { offsetInCU: 0xE4, offset: 0xE4, size: 0x8, addend: 0x0, symName: _.str.6, symObjAddr: 0x1BB40, symBinAddr: 0x100051E80, symSize: 0x0 }
  - { offsetInCU: 0x101, offset: 0x101, size: 0x8, addend: 0x0, symName: _.str.7, symObjAddr: 0x1BB60, symBinAddr: 0x100051EA0, symSize: 0x0 }
  - { offsetInCU: 0x112, offset: 0x112, size: 0x8, addend: 0x0, symName: _.str.8, symObjAddr: 0x1BB80, symBinAddr: 0x100051EC0, symSize: 0x0 }
  - { offsetInCU: 0x123, offset: 0x123, size: 0x8, addend: 0x0, symName: _.str.9, symObjAddr: 0x1BBA0, symBinAddr: 0x100051EE0, symSize: 0x0 }
  - { offsetInCU: 0x134, offset: 0x134, size: 0x8, addend: 0x0, symName: _.str.10, symObjAddr: 0x1BBC0, symBinAddr: 0x100051F00, symSize: 0x0 }
  - { offsetInCU: 0x151, offset: 0x151, size: 0x8, addend: 0x0, symName: _.str.11, symObjAddr: 0x1BC00, symBinAddr: 0x100051F40, symSize: 0x0 }
  - { offsetInCU: 0x162, offset: 0x162, size: 0x8, addend: 0x0, symName: _.str.12, symObjAddr: 0x1BC20, symBinAddr: 0x100051F60, symSize: 0x0 }
  - { offsetInCU: 0x173, offset: 0x173, size: 0x8, addend: 0x0, symName: _.str.13, symObjAddr: 0x1BC40, symBinAddr: 0x100051F80, symSize: 0x0 }
  - { offsetInCU: 0x184, offset: 0x184, size: 0x8, addend: 0x0, symName: _.str.14, symObjAddr: 0x1BC60, symBinAddr: 0x100051FA0, symSize: 0x0 }
  - { offsetInCU: 0x195, offset: 0x195, size: 0x8, addend: 0x0, symName: _.str.15, symObjAddr: 0x1BC80, symBinAddr: 0x100051FC0, symSize: 0x0 }
  - { offsetInCU: 0x1B2, offset: 0x1B2, size: 0x8, addend: 0x0, symName: _.str.16, symObjAddr: 0x1BCA0, symBinAddr: 0x100051FE0, symSize: 0x0 }
  - { offsetInCU: 0x1CF, offset: 0x1CF, size: 0x8, addend: 0x0, symName: _.str.17, symObjAddr: 0x1BCE0, symBinAddr: 0x100052020, symSize: 0x0 }
  - { offsetInCU: 0x1EC, offset: 0x1EC, size: 0x8, addend: 0x0, symName: _.str.18, symObjAddr: 0x1BD20, symBinAddr: 0x100052060, symSize: 0x0 }
  - { offsetInCU: 0x209, offset: 0x209, size: 0x8, addend: 0x0, symName: _.str.19, symObjAddr: 0x1BD40, symBinAddr: 0x100052080, symSize: 0x0 }
  - { offsetInCU: 0x226, offset: 0x226, size: 0x8, addend: 0x0, symName: _.str.20, symObjAddr: 0x1BD80, symBinAddr: 0x1000520C0, symSize: 0x0 }
  - { offsetInCU: 0x237, offset: 0x237, size: 0x8, addend: 0x0, symName: _.str.21, symObjAddr: 0x1BDA0, symBinAddr: 0x1000520E0, symSize: 0x0 }
  - { offsetInCU: 0x249, offset: 0x249, size: 0x8, addend: 0x0, symName: _.str.74, symObjAddr: 0x1BDC0, symBinAddr: 0x100052100, symSize: 0x0 }
  - { offsetInCU: 0x32E5, offset: 0x32E5, size: 0x8, addend: 0x0, symName: __ZNSt3__124__put_character_sequenceB8ne180100IcNS_11char_traitsIcEEEERNS_13basic_ostreamIT_T0_EES7_PKS4_m, symObjAddr: 0x6B20, symBinAddr: 0x100008020, symSize: 0x1020 }
  - { offsetInCU: 0x86DD, offset: 0x86DD, size: 0x8, addend: 0x0, symName: __ZNSt3__1lsB8ne180100INS_11char_traitsIcEEEERNS_13basic_ostreamIcT_EES6_PKc, symObjAddr: 0x32F0, symBinAddr: 0x1000047F0, symSize: 0xB0 }
  - { offsetInCU: 0x8723, offset: 0x8723, size: 0x8, addend: 0x0, symName: __ZNSt3__1lsB8ne180100IcNS_11char_traitsIcEENS_9allocatorIcEEEERNS_13basic_ostreamIT_T0_EES9_RKNS_12basic_stringIS6_S7_T1_EE, symObjAddr: 0x33A0, symBinAddr: 0x1000048A0, symSize: 0x100 }
  - { offsetInCU: 0x877B, offset: 0x877B, size: 0x8, addend: 0x0, symName: __ZNSt3__17getlineB8ne180100IcNS_11char_traitsIcEENS_9allocatorIcEEEERNS_13basic_istreamIT_T0_EES9_RNS_12basic_stringIS6_S7_T1_EE, symObjAddr: 0x34F0, symBinAddr: 0x1000049F0, symSize: 0x2D0 }
  - { offsetInCU: 0x87D3, offset: 0x87D3, size: 0x8, addend: 0x0, symName: __ZNSt3__1eqB8ne180100IcNS_11char_traitsIcEENS_9allocatorIcEEEEbRKNS_12basic_stringIT_T0_T1_EEPKS6_, symObjAddr: 0x38A0, symBinAddr: 0x100004DA0, symSize: 0x100 }
  - { offsetInCU: 0x883A, offset: 0x883A, size: 0x8, addend: 0x0, symName: __ZNSt3__14endlB8ne180100IcNS_11char_traitsIcEEEERNS_13basic_ostreamIT_T0_EES7_, symObjAddr: 0x3AC0, symBinAddr: 0x100004FC0, symSize: 0x3C0 }
  - { offsetInCU: 0x887A, offset: 0x887A, size: 0x8, addend: 0x0, symName: __ZNSt3__1neB8ne180100IPNS_12basic_stringIcNS_11char_traitsIcEENS_9allocatorIcEEEEEEbRKNS_11__wrap_iterIT_EESC_, symObjAddr: 0x4970, symBinAddr: 0x100005E70, symSize: 0xA0 }
  - { offsetInCU: 0x88BD, offset: 0x88BD, size: 0x8, addend: 0x0, symName: __ZNSt3__1eqB8ne180100IPNS_12basic_stringIcNS_11char_traitsIcEENS_9allocatorIcEEEEEEbRKNS_11__wrap_iterIT_EESC_, symObjAddr: 0x5000, symBinAddr: 0x100006500, symSize: 0xA0 }
  - { offsetInCU: 0x8900, offset: 0x8900, size: 0x8, addend: 0x0, symName: __ZNSt3__118__constexpr_strlenB8ne180100EPKc, symObjAddr: 0x5590, symBinAddr: 0x100006A90, symSize: 0x30 }
  - { offsetInCU: 0x892C, offset: 0x892C, size: 0x8, addend: 0x0, symName: __ZNSt3__112__to_addressB8ne180100IcEEPT_S2_, symObjAddr: 0x59A0, symBinAddr: 0x100006EA0, symSize: 0x20 }
  - { offsetInCU: 0x8994, offset: 0x8994, size: 0x8, addend: 0x0, symName: __ZNSt3__116__pad_and_outputB8ne180100IcNS_11char_traitsIcEEEENS_19ostreambuf_iteratorIT_T0_EES6_PKS4_S8_S8_RNS_8ios_baseES4_, symObjAddr: 0x7C00, symBinAddr: 0x100009100, symSize: 0xC00 }
  - { offsetInCU: 0x8A71, offset: 0x8A71, size: 0x8, addend: 0x0, symName: __ZNSt3__19use_facetB8ne180100INS_5ctypeIcEEEERKT_RKNS_6localeE, symObjAddr: 0x9E30, symBinAddr: 0x10000B330, symSize: 0x160 }
  - { offsetInCU: 0x8F3E, offset: 0x8F3E, size: 0x8, addend: 0x0, symName: __ZNSt3__112__to_addressB8ne180100IKcEEPT_S3_, symObjAddr: 0xA300, symBinAddr: 0x10000B800, symSize: 0x20 }
  - { offsetInCU: 0x8FA6, offset: 0x8FA6, size: 0x8, addend: 0x0, symName: __ZNSt3__17getlineB8ne180100IcNS_11char_traitsIcEENS_9allocatorIcEEEERNS_13basic_istreamIT_T0_EES9_RNS_12basic_stringIS6_S7_T1_EES6_, symObjAddr: 0xAA20, symBinAddr: 0x10000BF20, symSize: 0xF80 }
  - { offsetInCU: 0x9801, offset: 0x9801, size: 0x8, addend: 0x0, symName: __ZNSt3__119__libcpp_deallocateB8ne180100EPvmm, symObjAddr: 0xD6E0, symBinAddr: 0x10000EBE0, symSize: 0x70 }
  - { offsetInCU: 0x9866, offset: 0x9866, size: 0x8, addend: 0x0, symName: __ZNSt3__124__is_overaligned_for_newB8ne180100Em, symObjAddr: 0xD750, symBinAddr: 0x10000EC50, symSize: 0x20 }
  - { offsetInCU: 0x9894, offset: 0x9894, size: 0x8, addend: 0x0, symName: __ZNSt3__127__do_deallocate_handle_sizeB8ne180100IJSt11align_val_tEEEvPvmDpT_, symObjAddr: 0xD770, symBinAddr: 0x10000EC70, symSize: 0x30 }
  - { offsetInCU: 0x98E7, offset: 0x98E7, size: 0x8, addend: 0x0, symName: __ZNSt3__127__do_deallocate_handle_sizeB8ne180100IJEEEvPvmDpT_, symObjAddr: 0xD7A0, symBinAddr: 0x10000ECA0, symSize: 0x30 }
  - { offsetInCU: 0x9925, offset: 0x9925, size: 0x8, addend: 0x0, symName: __ZNSt3__124__libcpp_operator_deleteB8ne180100IJPvSt11align_val_tEEEvDpT_, symObjAddr: 0xD7D0, symBinAddr: 0x10000ECD0, symSize: 0x30 }
  - { offsetInCU: 0x996E, offset: 0x996E, size: 0x8, addend: 0x0, symName: __ZNSt3__124__libcpp_operator_deleteB8ne180100IJPvEEEvDpT_, symObjAddr: 0xD800, symBinAddr: 0x10000ED00, symSize: 0x30 }
  - { offsetInCU: 0x99A3, offset: 0x99A3, size: 0x8, addend: 0x0, symName: __ZNSt3__112__to_addressB8ne180100IPcEEPT_S3_, symObjAddr: 0xEB10, symBinAddr: 0x100010010, symSize: 0x20 }
  - { offsetInCU: 0x99D8, offset: 0x99D8, size: 0x8, addend: 0x0, symName: __ZNSt3__13maxB8ne180100ImEERKT_S3_S3_, symObjAddr: 0x11B60, symBinAddr: 0x100013060, symSize: 0xD0 }
  - { offsetInCU: 0x9A1B, offset: 0x9A1B, size: 0x8, addend: 0x0, symName: __ZNSt3__13minB8ne180100ImEERKT_S3_S3_, symObjAddr: 0x11C30, symBinAddr: 0x100013130, symSize: 0xD0 }
  - { offsetInCU: 0x9C48, offset: 0x9C48, size: 0x8, addend: 0x0, symName: __ZNSt3__13minB8ne180100ImNS_6__lessIvvEEEERKT_S5_S5_T0_, symObjAddr: 0x11E00, symBinAddr: 0x100013300, symSize: 0x220 }
  - { offsetInCU: 0x9CED, offset: 0x9CED, size: 0x8, addend: 0x0, symName: __ZNSt3__120__throw_length_errorB8ne180100EPKc, symObjAddr: 0x12270, symBinAddr: 0x100013770, symSize: 0xB0 }
  - { offsetInCU: 0x9D15, offset: 0x9D15, size: 0x8, addend: 0x0, symName: __ZNSt3__13maxB8ne180100ImNS_6__lessIvvEEEERKT_S5_S5_T0_, symObjAddr: 0x12450, symBinAddr: 0x100013950, symSize: 0x220 }
  - { offsetInCU: 0x9D75, offset: 0x9D75, size: 0x8, addend: 0x0, symName: __ZNSt3__119__allocate_at_leastB8ne180100INS_9allocatorIPcEEEENS_19__allocation_resultINS_16allocator_traitsIT_E7pointerEEERS6_m, symObjAddr: 0x12D90, symBinAddr: 0x100014290, symSize: 0x210 }
  - { offsetInCU: 0x9DBA, offset: 0x9DBA, size: 0x8, addend: 0x0, symName: __ZNSt3__117__libcpp_allocateB8ne180100Emm, symObjAddr: 0x13410, symBinAddr: 0x100014910, symSize: 0x70 }
  - { offsetInCU: 0x9E14, offset: 0x9E14, size: 0x8, addend: 0x0, symName: __ZNSt3__121__libcpp_operator_newB8ne180100IJmSt11align_val_tEEEPvDpT_, symObjAddr: 0x13480, symBinAddr: 0x100014980, symSize: 0x70 }
  - { offsetInCU: 0x9E61, offset: 0x9E61, size: 0x8, addend: 0x0, symName: __ZNSt3__121__libcpp_operator_newB8ne180100IJmEEEPvDpT_, symObjAddr: 0x134F0, symBinAddr: 0x1000149F0, symSize: 0x30 }
  - { offsetInCU: 0x9E9A, offset: 0x9E9A, size: 0x8, addend: 0x0, symName: __ZNSt3__142__uninitialized_allocator_move_if_noexceptB8ne180100INS_9allocatorIPcEENS_16reverse_iteratorIPS2_EES6_S2_vEET1_RT_T0_SA_S7_, symObjAddr: 0x13770, symBinAddr: 0x100014C70, symSize: 0x610 }
  - { offsetInCU: 0x9F24, offset: 0x9F24, size: 0x8, addend: 0x0, symName: __ZNSt3__14swapB8ne180100IPPcEENS_9enable_ifIXaasr21is_move_constructibleIT_EE5valuesr18is_move_assignableIS4_EE5valueEvE4typeERS4_S7_, symObjAddr: 0x13E60, symBinAddr: 0x100015360, symSize: 0x170 }
  - { offsetInCU: 0x9F75, offset: 0x9F75, size: 0x8, addend: 0x0, symName: __ZNSt3__14moveB8ne180100INS_16reverse_iteratorIPPcEES4_EET0_T_S6_S5_, symObjAddr: 0x14120, symBinAddr: 0x100015620, symSize: 0x670 }
  - { offsetInCU: 0x9FDC, offset: 0x9FDC, size: 0x8, addend: 0x0, symName: __ZNSt3__16__moveB8ne180100INS_17_ClassicAlgPolicyENS_16reverse_iteratorIPPcEES5_S5_EENS_4pairIT0_T2_EES7_T1_S8_, symObjAddr: 0x14790, symBinAddr: 0x100015C90, symSize: 0x560 }
  - { offsetInCU: 0xA054, offset: 0xA054, size: 0x8, addend: 0x0, symName: __ZNSt3__123__dispatch_copy_or_moveB8ne180100INS_17_ClassicAlgPolicyENS_11__move_loopIS1_EENS_14__move_trivialENS_16reverse_iteratorIPPcEES8_S8_EENS_4pairIT2_T4_EESA_T3_SB_, symObjAddr: 0x14CF0, symBinAddr: 0x1000161F0, symSize: 0x560 }
  - { offsetInCU: 0xA0DE, offset: 0xA0DE, size: 0x8, addend: 0x0, symName: __ZNSt3__121__unwrap_and_dispatchB8ne180100INS_10__overloadINS_11__move_loopINS_17_ClassicAlgPolicyEEENS_14__move_trivialEEENS_16reverse_iteratorIPPcEESA_SA_Li0EEENS_4pairIT0_T2_EESC_T1_SD_, symObjAddr: 0x15250, symBinAddr: 0x100016750, symSize: 0xD40 }
  - { offsetInCU: 0xA182, offset: 0xA182, size: 0x8, addend: 0x0, symName: __ZNSt3__114__unwrap_rangeB8ne180100INS_16reverse_iteratorIPPcEES4_EENS_4pairIT0_S6_EET_S8_, symObjAddr: 0x15F90, symBinAddr: 0x100017490, symSize: 0x5A0 }
  - { offsetInCU: 0xA305, offset: 0xA305, size: 0x8, addend: 0x0, symName: __ZNSt3__113__unwrap_iterB8ne180100INS_16reverse_iteratorIPPcEENS_18__unwrap_iter_implIS4_Lb0EEELi0EEEDTclsrT0_8__unwrapclsr3stdE7declvalIT_EEEES8_, symObjAddr: 0x169C0, symBinAddr: 0x100017EC0, symSize: 0x340 }
  - { offsetInCU: 0xA34D, offset: 0xA34D, size: 0x8, addend: 0x0, symName: __ZNSt3__19make_pairB8ne180100INS_16reverse_iteratorIPPcEES4_EENS_4pairINS_18__unwrap_ref_decayIT_E4typeENS6_IT0_E4typeEEEOS7_OSA_, symObjAddr: 0x16D00, symBinAddr: 0x100018200, symSize: 0xE0 }
  - { offsetInCU: 0xA39C, offset: 0xA39C, size: 0x8, addend: 0x0, symName: __ZNSt3__114__rewrap_rangeB8ne180100INS_16reverse_iteratorIPPcEES4_EET_S5_T0_, symObjAddr: 0x16DE0, symBinAddr: 0x1000182E0, symSize: 0x4E0 }
  - { offsetInCU: 0xA3F0, offset: 0xA3F0, size: 0x8, addend: 0x0, symName: __ZNSt3__113__rewrap_iterB8ne180100INS_16reverse_iteratorIPPcEES4_NS_18__unwrap_iter_implIS4_Lb0EEEEET_S7_T0_, symObjAddr: 0x172C0, symBinAddr: 0x1000187C0, symSize: 0x500 }
  - { offsetInCU: 0xA44D, offset: 0xA44D, size: 0x8, addend: 0x0, symName: __ZNSt3__1neB8ne180100IPPcS2_EEbRKNS_16reverse_iteratorIT_EERKNS3_IT0_EE, symObjAddr: 0x177C0, symBinAddr: 0x100018CC0, symSize: 0xA0 }
  - { offsetInCU: 0xA824, offset: 0xA824, size: 0x8, addend: 0x0, symName: __ZSt28__throw_bad_array_new_lengthB8ne180100v, symObjAddr: 0x13390, symBinAddr: 0x100014890, symSize: 0x80 }
  - { offsetInCU: 0xB0D7, offset: 0xB0D7, size: 0x8, addend: 0x0, symName: __ZNSt3__16vectorIPcNS_9allocatorIS1_EEE26__swap_out_circular_bufferERNS_14__split_bufferIS1_RS3_EE, symObjAddr: 0x10EA0, symBinAddr: 0x1000123A0, symSize: 0x910 }
  - { offsetInCU: 0xD4E4, offset: 0xD4E4, size: 0x8, addend: 0x0, symName: _main, symObjAddr: 0x0, symBinAddr: 0x100001500, symSize: 0x3230 }
  - { offsetInCU: 0xD6ED, offset: 0xD6ED, size: 0x8, addend: 0x0, symName: __ZNSt3__112basic_stringIcNS_11char_traitsIcEENS_9allocatorIcEEEC1B8ne180100ILi0EEEPKc, symObjAddr: 0x3230, symBinAddr: 0x100004730, symSize: 0x60 }
  - { offsetInCU: 0xD72A, offset: 0xD72A, size: 0x8, addend: 0x0, symName: __ZNSt3__112basic_stringIcNS_11char_traitsIcEENS_9allocatorIcEEE8pop_backB8ne180100Ev, symObjAddr: 0x3290, symBinAddr: 0x100004790, symSize: 0x60 }
  - { offsetInCU: 0xD751, offset: 0xD751, size: 0x8, addend: 0x0, symName: __ZNSt3__112basic_stringIcNS_11char_traitsIcEENS_9allocatorIcEEEC1B8ne180100Ev, symObjAddr: 0x34A0, symBinAddr: 0x1000049A0, symSize: 0x50 }
  - { offsetInCU: 0xD77A, offset: 0xD77A, size: 0x8, addend: 0x0, symName: __ZNKSt3__19basic_iosIcNS_11char_traitsIcEEEntB8ne180100Ev, symObjAddr: 0x37C0, symBinAddr: 0x100004CC0, symSize: 0xE0 }
  - { offsetInCU: 0xD79F, offset: 0xD79F, size: 0x8, addend: 0x0, symName: __ZNSt3__113basic_ostreamIcNS_11char_traitsIcEEElsB8ne180100EPFRS3_S4_E, symObjAddr: 0x39A0, symBinAddr: 0x100004EA0, symSize: 0x120 }
  - { offsetInCU: 0xD7D2, offset: 0xD7D2, size: 0x8, addend: 0x0, symName: __ZNKSt3__16vectorIP7CommandNS_9allocatorIS2_EEE5emptyB8ne180100Ev, symObjAddr: 0x3E80, symBinAddr: 0x100005380, symSize: 0xC0 }
  - { offsetInCU: 0xD7F6, offset: 0xD7F6, size: 0x8, addend: 0x0, symName: __ZNSt3__16vectorIP7CommandNS_9allocatorIS2_EEEixB8ne180100Em, symObjAddr: 0x3F40, symBinAddr: 0x100005440, symSize: 0x110 }
  - { offsetInCU: 0xD82B, offset: 0xD82B, size: 0x8, addend: 0x0, symName: __ZNSt3__16vectorINS_12basic_stringIcNS_11char_traitsIcEENS_9allocatorIcEEEENS4_IS6_EEEixB8ne180100Em, symObjAddr: 0x4050, symBinAddr: 0x100005550, symSize: 0x110 }
  - { offsetInCU: 0xD861, offset: 0xD861, size: 0x8, addend: 0x0, symName: __ZNKSt3__16vectorINS_12basic_stringIcNS_11char_traitsIcEENS_9allocatorIcEEEENS4_IS6_EEE4sizeB8ne180100Ev, symObjAddr: 0x4160, symBinAddr: 0x100005660, symSize: 0xD0 }
  - { offsetInCU: 0xD886, offset: 0xD886, size: 0x8, addend: 0x0, symName: __ZNSt3__112basic_stringIcNS_11char_traitsIcEENS_9allocatorIcEEEaSB8ne180100EPKc, symObjAddr: 0x4230, symBinAddr: 0x100005730, symSize: 0x90 }
  - { offsetInCU: 0xD8BA, offset: 0xD8BA, size: 0x8, addend: 0x0, symName: __ZNKSt3__112basic_stringIcNS_11char_traitsIcEENS_9allocatorIcEEE5emptyB8ne180100Ev, symObjAddr: 0x42C0, symBinAddr: 0x1000057C0, symSize: 0x60 }
  - { offsetInCU: 0xD8DF, offset: 0xD8DF, size: 0x8, addend: 0x0, symName: __ZNSt3__112basic_stringIcNS_11char_traitsIcEENS_9allocatorIcEEEaSB8ne180100EOS5_, symObjAddr: 0x4320, symBinAddr: 0x100005820, symSize: 0xC0 }
  - { offsetInCU: 0xD913, offset: 0xD913, size: 0x8, addend: 0x0, symName: __ZNKSt3__112basic_stringIcNS_11char_traitsIcEENS_9allocatorIcEEE5c_strB8ne180100Ev, symObjAddr: 0x43E0, symBinAddr: 0x1000058E0, symSize: 0x50 }
  - { offsetInCU: 0xD938, offset: 0xD938, size: 0x8, addend: 0x0, symName: __ZNKSt3__16vectorIP7CommandNS_9allocatorIS2_EEE4sizeB8ne180100Ev, symObjAddr: 0x4430, symBinAddr: 0x100005930, symSize: 0xC0 }
  - { offsetInCU: 0xD95D, offset: 0xD95D, size: 0x8, addend: 0x0, symName: __ZNSt3__16vectorIPcNS_9allocatorIS1_EEEC1B8ne180100Ev, symObjAddr: 0x44F0, symBinAddr: 0x1000059F0, symSize: 0x50 }
  - { offsetInCU: 0xD985, offset: 0xD985, size: 0x8, addend: 0x0, symName: __ZNSt3__16vectorINS_12basic_stringIcNS_11char_traitsIcEENS_9allocatorIcEEEENS4_IS6_EEE5beginB8ne180100Ev, symObjAddr: 0x4540, symBinAddr: 0x100005A40, symSize: 0x210 }
  - { offsetInCU: 0xD9AC, offset: 0xD9AC, size: 0x8, addend: 0x0, symName: __ZNSt3__16vectorINS_12basic_stringIcNS_11char_traitsIcEENS_9allocatorIcEEEENS4_IS6_EEE3endB8ne180100Ev, symObjAddr: 0x4750, symBinAddr: 0x100005C50, symSize: 0x220 }
  - { offsetInCU: 0xD9D4, offset: 0xD9D4, size: 0x8, addend: 0x0, symName: __ZNKSt3__111__wrap_iterIPNS_12basic_stringIcNS_11char_traitsIcEENS_9allocatorIcEEEEEdeB8ne180100Ev, symObjAddr: 0x4A10, symBinAddr: 0x100005F10, symSize: 0xB0 }
  - { offsetInCU: 0xD9F8, offset: 0xD9F8, size: 0x8, addend: 0x0, symName: __ZNSt3__16vectorIPcNS_9allocatorIS1_EEE9push_backB8ne180100EOS1_, symObjAddr: 0x4AC0, symBinAddr: 0x100005FC0, symSize: 0x230 }
  - { offsetInCU: 0xDA3D, offset: 0xDA3D, size: 0x8, addend: 0x0, symName: __ZNSt3__111__wrap_iterIPNS_12basic_stringIcNS_11char_traitsIcEENS_9allocatorIcEEEEEppB8ne180100Ev, symObjAddr: 0x4CF0, symBinAddr: 0x1000061F0, symSize: 0x130 }
  - { offsetInCU: 0xDA61, offset: 0xDA61, size: 0x8, addend: 0x0, symName: __ZNSt3__16vectorIPcNS_9allocatorIS1_EEEixB8ne180100Em, symObjAddr: 0x4E20, symBinAddr: 0x100006320, symSize: 0x110 }
  - { offsetInCU: 0xDA97, offset: 0xDA97, size: 0x8, addend: 0x0, symName: __ZNSt3__16vectorIPcNS_9allocatorIS1_EEE4dataB8ne180100Ev, symObjAddr: 0x4F30, symBinAddr: 0x100006430, symSize: 0x80 }
  - { offsetInCU: 0xDABC, offset: 0xDABC, size: 0x8, addend: 0x0, symName: __ZNSt3__16vectorIPcNS_9allocatorIS1_EEED1B8ne180100Ev, symObjAddr: 0x4FB0, symBinAddr: 0x1000064B0, symSize: 0x50 }
  - { offsetInCU: 0xDAE5, offset: 0xDAE5, size: 0x8, addend: 0x0, symName: __ZNKSt3__111__wrap_iterIPNS_12basic_stringIcNS_11char_traitsIcEENS_9allocatorIcEEEEE4baseB8ne180100Ev, symObjAddr: 0x50A0, symBinAddr: 0x1000065A0, symSize: 0x80 }
  - { offsetInCU: 0xDB0A, offset: 0xDB0A, size: 0x8, addend: 0x0, symName: __ZNSt3__112basic_stringIcNS_11char_traitsIcEENS_9allocatorIcEEEC2B8ne180100ILi0EEEPKc, symObjAddr: 0x5120, symBinAddr: 0x100006620, symSize: 0x1C0 }
  - { offsetInCU: 0xDB4F, offset: 0xDB4F, size: 0x8, addend: 0x0, symName: __ZNSt3__117__compressed_pairINS_12basic_stringIcNS_11char_traitsIcEENS_9allocatorIcEEE5__repES5_EC1B8ne180100INS_18__default_init_tagESA_EEOT_OT0_, symObjAddr: 0x52E0, symBinAddr: 0x1000067E0, symSize: 0x60 }
  - { offsetInCU: 0xDBA6, offset: 0xDBA6, size: 0x8, addend: 0x0, symName: __ZNSt3__111char_traitsIcE6lengthB8ne180100EPKc, symObjAddr: 0x5340, symBinAddr: 0x100006840, symSize: 0x50 }
  - { offsetInCU: 0xDBC9, offset: 0xDBC9, size: 0x8, addend: 0x0, symName: __ZNSt3__117__compressed_pairINS_12basic_stringIcNS_11char_traitsIcEENS_9allocatorIcEEE5__repES5_EC2B8ne180100INS_18__default_init_tagESA_EEOT_OT0_, symObjAddr: 0x5390, symBinAddr: 0x100006890, symSize: 0xB0 }
  - { offsetInCU: 0xDC20, offset: 0xDC20, size: 0x8, addend: 0x0, symName: __ZNSt3__122__compressed_pair_elemINS_12basic_stringIcNS_11char_traitsIcEENS_9allocatorIcEEE5__repELi0ELb0EEC2B8ne180100ENS_18__default_init_tagE, symObjAddr: 0x5440, symBinAddr: 0x100006940, symSize: 0x50 }
  - { offsetInCU: 0xDC54, offset: 0xDC54, size: 0x8, addend: 0x0, symName: __ZNSt3__122__compressed_pair_elemINS_9allocatorIcEELi1ELb1EEC2B8ne180100ENS_18__default_init_tagE, symObjAddr: 0x5490, symBinAddr: 0x100006990, symSize: 0x60 }
  - { offsetInCU: 0xDC88, offset: 0xDC88, size: 0x8, addend: 0x0, symName: __ZNSt3__19allocatorIcEC2B8ne180100Ev, symObjAddr: 0x54F0, symBinAddr: 0x1000069F0, symSize: 0x60 }
  - { offsetInCU: 0xDCB1, offset: 0xDCB1, size: 0x8, addend: 0x0, symName: __ZNSt3__116__non_trivial_ifILb1ENS_9allocatorIcEEEC2B8ne180100Ev, symObjAddr: 0x5550, symBinAddr: 0x100006A50, symSize: 0x40 }
  - { offsetInCU: 0xDCDA, offset: 0xDCDA, size: 0x8, addend: 0x0, symName: __ZNSt3__112basic_stringIcNS_11char_traitsIcEENS_9allocatorIcEEE14__erase_to_endB8ne180100Em, symObjAddr: 0x55D0, symBinAddr: 0x100006AD0, symSize: 0x70 }
  - { offsetInCU: 0xDD0E, offset: 0xDD0E, size: 0x8, addend: 0x0, symName: __ZNKSt3__112basic_stringIcNS_11char_traitsIcEENS_9allocatorIcEEE4sizeB8ne180100Ev, symObjAddr: 0x5640, symBinAddr: 0x100006B40, symSize: 0x80 }
  - { offsetInCU: 0xDD33, offset: 0xDD33, size: 0x8, addend: 0x0, symName: __ZNSt3__112basic_stringIcNS_11char_traitsIcEENS_9allocatorIcEEE19__null_terminate_atB8ne180100EPcm, symObjAddr: 0x56C0, symBinAddr: 0x100006BC0, symSize: 0x2E0 }
  - { offsetInCU: 0xDD89, offset: 0xDD89, size: 0x8, addend: 0x0, symName: __ZNSt3__112basic_stringIcNS_11char_traitsIcEENS_9allocatorIcEEE13__get_pointerB8ne180100Ev, symObjAddr: 0x59C0, symBinAddr: 0x100006EC0, symSize: 0x80 }
  - { offsetInCU: 0xDDAE, offset: 0xDDAE, size: 0x8, addend: 0x0, symName: __ZNKSt3__112basic_stringIcNS_11char_traitsIcEENS_9allocatorIcEEE19__annotate_increaseB8ne180100Em, symObjAddr: 0x5A40, symBinAddr: 0x100006F40, symSize: 0x50 }
  - { offsetInCU: 0xDDE2, offset: 0xDDE2, size: 0x8, addend: 0x0, symName: __ZNSt3__112basic_stringIcNS_11char_traitsIcEENS_9allocatorIcEEE10__set_sizeB8ne180100Em, symObjAddr: 0x5A90, symBinAddr: 0x100006F90, symSize: 0x80 }
  - { offsetInCU: 0xDE16, offset: 0xDE16, size: 0x8, addend: 0x0, symName: __ZNSt3__111char_traitsIcE6assignB8ne180100ERcRKc, symObjAddr: 0x5B10, symBinAddr: 0x100007010, symSize: 0xC0 }
  - { offsetInCU: 0xDE47, offset: 0xDE47, size: 0x8, addend: 0x0, symName: __ZNKSt3__112basic_stringIcNS_11char_traitsIcEENS_9allocatorIcEEE17__annotate_shrinkB8ne180100Em, symObjAddr: 0x5BD0, symBinAddr: 0x1000070D0, symSize: 0x50 }
  - { offsetInCU: 0xDE7B, offset: 0xDE7B, size: 0x8, addend: 0x0, symName: __ZNKSt3__112basic_stringIcNS_11char_traitsIcEENS_9allocatorIcEEE9__is_longB8ne180100Ev, symObjAddr: 0x5C20, symBinAddr: 0x100007120, symSize: 0x1A0 }
  - { offsetInCU: 0xDEA0, offset: 0xDEA0, size: 0x8, addend: 0x0, symName: __ZNSt3__112basic_stringIcNS_11char_traitsIcEENS_9allocatorIcEEE15__set_long_sizeB8ne180100Em, symObjAddr: 0x5DC0, symBinAddr: 0x1000072C0, symSize: 0x190 }
  - { offsetInCU: 0xDED4, offset: 0xDED4, size: 0x8, addend: 0x0, symName: __ZNSt3__112basic_stringIcNS_11char_traitsIcEENS_9allocatorIcEEE16__set_short_sizeB8ne180100Em, symObjAddr: 0x5F50, symBinAddr: 0x100007450, symSize: 0x300 }
  - { offsetInCU: 0xDF08, offset: 0xDF08, size: 0x8, addend: 0x0, symName: __ZNKSt3__117__compressed_pairINS_12basic_stringIcNS_11char_traitsIcEENS_9allocatorIcEEE5__repES5_E5firstB8ne180100Ev, symObjAddr: 0x6250, symBinAddr: 0x100007750, symSize: 0xE0 }
  - { offsetInCU: 0xDF2D, offset: 0xDF2D, size: 0x8, addend: 0x0, symName: __ZNKSt3__122__compressed_pair_elemINS_12basic_stringIcNS_11char_traitsIcEENS_9allocatorIcEEE5__repELi0ELb0EE5__getB8ne180100Ev, symObjAddr: 0x6330, symBinAddr: 0x100007830, symSize: 0x80 }
  - { offsetInCU: 0xDF52, offset: 0xDF52, size: 0x8, addend: 0x0, symName: __ZNSt3__117__compressed_pairINS_12basic_stringIcNS_11char_traitsIcEENS_9allocatorIcEEE5__repES5_E5firstB8ne180100Ev, symObjAddr: 0x63B0, symBinAddr: 0x1000078B0, symSize: 0xE0 }
  - { offsetInCU: 0xDF77, offset: 0xDF77, size: 0x8, addend: 0x0, symName: __ZNSt3__122__compressed_pair_elemINS_12basic_stringIcNS_11char_traitsIcEENS_9allocatorIcEEE5__repELi0ELb0EE5__getB8ne180100Ev, symObjAddr: 0x6490, symBinAddr: 0x100007990, symSize: 0x80 }
  - { offsetInCU: 0xDF9C, offset: 0xDF9C, size: 0x8, addend: 0x0, symName: __ZNSt3__112basic_stringIcNS_11char_traitsIcEENS_9allocatorIcEEE18__get_long_pointerB8ne180100Ev, symObjAddr: 0x6510, symBinAddr: 0x100007A10, symSize: 0x180 }
  - { offsetInCU: 0xDFC1, offset: 0xDFC1, size: 0x8, addend: 0x0, symName: __ZNSt3__112basic_stringIcNS_11char_traitsIcEENS_9allocatorIcEEE19__get_short_pointerB8ne180100Ev, symObjAddr: 0x6690, symBinAddr: 0x100007B90, symSize: 0x160 }
  - { offsetInCU: 0xDFE6, offset: 0xDFE6, size: 0x8, addend: 0x0, symName: __ZNSt3__114pointer_traitsIPcE10pointer_toB8ne180100ERc, symObjAddr: 0x67F0, symBinAddr: 0x100007CF0, symSize: 0x20 }
  - { offsetInCU: 0xE009, offset: 0xE009, size: 0x8, addend: 0x0, symName: __ZNKSt3__112basic_stringIcNS_11char_traitsIcEENS_9allocatorIcEEE15__get_long_sizeB8ne180100Ev, symObjAddr: 0x6810, symBinAddr: 0x100007D10, symSize: 0x180 }
  - { offsetInCU: 0xE02E, offset: 0xE02E, size: 0x8, addend: 0x0, symName: __ZNKSt3__112basic_stringIcNS_11char_traitsIcEENS_9allocatorIcEEE16__get_short_sizeB8ne180100Ev, symObjAddr: 0x6990, symBinAddr: 0x100007E90, symSize: 0x190 }
  - { offsetInCU: 0xE071, offset: 0xE071, size: 0x8, addend: 0x0, symName: __ZNKSt3__113basic_ostreamIcNS_11char_traitsIcEEE6sentrycvbB8ne180100Ev, symObjAddr: 0x7B40, symBinAddr: 0x100009040, symSize: 0xC0 }
  - { offsetInCU: 0xE096, offset: 0xE096, size: 0x8, addend: 0x0, symName: __ZNSt3__119ostreambuf_iteratorIcNS_11char_traitsIcEEEC1B8ne180100ERNS_13basic_ostreamIcS2_EE, symObjAddr: 0x8800, symBinAddr: 0x100009D00, symSize: 0x60 }
  - { offsetInCU: 0xE0CC, offset: 0xE0CC, size: 0x8, addend: 0x0, symName: __ZNKSt3__18ios_base5flagsB8ne180100Ev, symObjAddr: 0x8860, symBinAddr: 0x100009D60, symSize: 0x120 }
  - { offsetInCU: 0xE0F2, offset: 0xE0F2, size: 0x8, addend: 0x0, symName: __ZNKSt3__19basic_iosIcNS_11char_traitsIcEEE4fillB8ne180100Ev, symObjAddr: 0x8980, symBinAddr: 0x100009E80, symSize: 0x3A0 }
  - { offsetInCU: 0xE119, offset: 0xE119, size: 0x8, addend: 0x0, symName: __ZNKSt3__119ostreambuf_iteratorIcNS_11char_traitsIcEEE6failedB8ne180100Ev, symObjAddr: 0x8D20, symBinAddr: 0x10000A220, symSize: 0x80 }
  - { offsetInCU: 0xE13E, offset: 0xE13E, size: 0x8, addend: 0x0, symName: __ZNSt3__19basic_iosIcNS_11char_traitsIcEEE8setstateB8ne180100Ej, symObjAddr: 0x8DA0, symBinAddr: 0x10000A2A0, symSize: 0x100 }
  - { offsetInCU: 0xE171, offset: 0xE171, size: 0x8, addend: 0x0, symName: __ZNKSt3__18ios_base5widthB8ne180100Ev, symObjAddr: 0x8EA0, symBinAddr: 0x10000A3A0, symSize: 0x110 }
  - { offsetInCU: 0xE198, offset: 0xE198, size: 0x8, addend: 0x0, symName: __ZNSt3__115basic_streambufIcNS_11char_traitsIcEEE5sputnB8ne180100EPKcl, symObjAddr: 0x8FB0, symBinAddr: 0x10000A4B0, symSize: 0x160 }
  - { offsetInCU: 0xE1D9, offset: 0xE1D9, size: 0x8, addend: 0x0, symName: __ZNSt3__112basic_stringIcNS_11char_traitsIcEENS_9allocatorIcEEEC1B8ne180100Emc, symObjAddr: 0x9110, symBinAddr: 0x10000A610, symSize: 0x60 }
  - { offsetInCU: 0xE220, offset: 0xE220, size: 0x8, addend: 0x0, symName: __ZNSt3__112basic_stringIcNS_11char_traitsIcEENS_9allocatorIcEEE4dataB8ne180100Ev, symObjAddr: 0x9170, symBinAddr: 0x10000A670, symSize: 0x60 }
  - { offsetInCU: 0xE244, offset: 0xE244, size: 0x8, addend: 0x0, symName: __ZNSt3__18ios_base5widthB8ne180100El, symObjAddr: 0x91D0, symBinAddr: 0x10000A6D0, symSize: 0x1E0 }
  - { offsetInCU: 0xE289, offset: 0xE289, size: 0x8, addend: 0x0, symName: __ZNSt3__112basic_stringIcNS_11char_traitsIcEENS_9allocatorIcEEEC2B8ne180100Emc, symObjAddr: 0x93B0, symBinAddr: 0x10000A8B0, symSize: 0x1C0 }
  - { offsetInCU: 0xE2D3, offset: 0xE2D3, size: 0x8, addend: 0x0, symName: __ZNSt3__119ostreambuf_iteratorIcNS_11char_traitsIcEEEC2B8ne180100ERNS_13basic_ostreamIcS2_EE, symObjAddr: 0x9570, symBinAddr: 0x10000AA70, symSize: 0x290 }
  - { offsetInCU: 0xE309, offset: 0xE309, size: 0x8, addend: 0x0, symName: __ZNKSt3__19basic_iosIcNS_11char_traitsIcEEE5rdbufB8ne180100Ev, symObjAddr: 0x9800, symBinAddr: 0x10000AD00, symSize: 0x100 }
  - { offsetInCU: 0xE330, offset: 0xE330, size: 0x8, addend: 0x0, symName: __ZNKSt3__18ios_base5rdbufB8ne180100Ev, symObjAddr: 0x9900, symBinAddr: 0x10000AE00, symSize: 0x110 }
  - { offsetInCU: 0xE355, offset: 0xE355, size: 0x8, addend: 0x0, symName: __ZNSt3__111char_traitsIcE11eq_int_typeB8ne180100Eii, symObjAddr: 0x9A10, symBinAddr: 0x10000AF10, symSize: 0x30 }
  - { offsetInCU: 0xE388, offset: 0xE388, size: 0x8, addend: 0x0, symName: __ZNSt3__111char_traitsIcE3eofB8ne180100Ev, symObjAddr: 0x9A40, symBinAddr: 0x10000AF40, symSize: 0x20 }
  - { offsetInCU: 0xE39B, offset: 0xE39B, size: 0x8, addend: 0x0, symName: __ZNKSt3__19basic_iosIcNS_11char_traitsIcEEE5widenB8ne180100Ec, symObjAddr: 0x9A60, symBinAddr: 0x10000AF60, symSize: 0x3D0 }
  - { offsetInCU: 0xE40A, offset: 0xE40A, size: 0x8, addend: 0x0, symName: __ZNKSt3__15ctypeIcE5widenB8ne180100Ec, symObjAddr: 0x9F90, symBinAddr: 0x10000B490, symSize: 0x150 }
  - { offsetInCU: 0xE43D, offset: 0xE43D, size: 0x8, addend: 0x0, symName: __ZNSt3__18ios_base8setstateB8ne180100Ej, symObjAddr: 0xA0E0, symBinAddr: 0x10000B5E0, symSize: 0x1C0 }
  - { offsetInCU: 0xE473, offset: 0xE473, size: 0x8, addend: 0x0, symName: __ZNKSt3__112basic_stringIcNS_11char_traitsIcEENS_9allocatorIcEEE4dataB8ne180100Ev, symObjAddr: 0xA2A0, symBinAddr: 0x10000B7A0, symSize: 0x60 }
  - { offsetInCU: 0xE498, offset: 0xE498, size: 0x8, addend: 0x0, symName: __ZNKSt3__112basic_stringIcNS_11char_traitsIcEENS_9allocatorIcEEE13__get_pointerB8ne180100Ev, symObjAddr: 0xA320, symBinAddr: 0x10000B820, symSize: 0x80 }
  - { offsetInCU: 0xE4BD, offset: 0xE4BD, size: 0x8, addend: 0x0, symName: __ZNKSt3__112basic_stringIcNS_11char_traitsIcEENS_9allocatorIcEEE18__get_long_pointerB8ne180100Ev, symObjAddr: 0xA3A0, symBinAddr: 0x10000B8A0, symSize: 0x180 }
  - { offsetInCU: 0xE4E2, offset: 0xE4E2, size: 0x8, addend: 0x0, symName: __ZNKSt3__112basic_stringIcNS_11char_traitsIcEENS_9allocatorIcEEE19__get_short_pointerB8ne180100Ev, symObjAddr: 0xA520, symBinAddr: 0x10000BA20, symSize: 0x160 }
  - { offsetInCU: 0xE507, offset: 0xE507, size: 0x8, addend: 0x0, symName: __ZNSt3__114pointer_traitsIPKcE10pointer_toB8ne180100ERS1_, symObjAddr: 0xA680, symBinAddr: 0x10000BB80, symSize: 0x20 }
  - { offsetInCU: 0xE52A, offset: 0xE52A, size: 0x8, addend: 0x0, symName: __ZNSt3__112basic_stringIcNS_11char_traitsIcEENS_9allocatorIcEEEC2B8ne180100Ev, symObjAddr: 0xA6A0, symBinAddr: 0x10000BBA0, symSize: 0x1C0 }
  - { offsetInCU: 0xE559, offset: 0xE559, size: 0x8, addend: 0x0, symName: __ZNSt3__117__compressed_pairINS_12basic_stringIcNS_11char_traitsIcEENS_9allocatorIcEEE5__repES5_EC1B8ne180100INS_16__value_init_tagENS_18__default_init_tagEEEOT_OT0_, symObjAddr: 0xA860, symBinAddr: 0x10000BD60, symSize: 0x60 }
  - { offsetInCU: 0xE5B0, offset: 0xE5B0, size: 0x8, addend: 0x0, symName: __ZNKSt3__112basic_stringIcNS_11char_traitsIcEENS_9allocatorIcEEE14__annotate_newB8ne180100Em, symObjAddr: 0xA8C0, symBinAddr: 0x10000BDC0, symSize: 0x50 }
  - { offsetInCU: 0xE5E4, offset: 0xE5E4, size: 0x8, addend: 0x0, symName: __ZNSt3__117__compressed_pairINS_12basic_stringIcNS_11char_traitsIcEENS_9allocatorIcEEE5__repES5_EC2B8ne180100INS_16__value_init_tagENS_18__default_init_tagEEEOT_OT0_, symObjAddr: 0xA910, symBinAddr: 0x10000BE10, symSize: 0xB0 }
  - { offsetInCU: 0xE63B, offset: 0xE63B, size: 0x8, addend: 0x0, symName: __ZNSt3__122__compressed_pair_elemINS_12basic_stringIcNS_11char_traitsIcEENS_9allocatorIcEEE5__repELi0ELb0EEC2B8ne180100ENS_16__value_init_tagE, symObjAddr: 0xA9C0, symBinAddr: 0x10000BEC0, symSize: 0x60 }
  - { offsetInCU: 0xE701, offset: 0xE701, size: 0x8, addend: 0x0, symName: __ZNKSt3__113basic_istreamIcNS_11char_traitsIcEEE6sentrycvbB8ne180100Ev, symObjAddr: 0xB9A0, symBinAddr: 0x10000CEA0, symSize: 0xB0 }
  - { offsetInCU: 0xE725, offset: 0xE725, size: 0x8, addend: 0x0, symName: __ZNSt3__112basic_stringIcNS_11char_traitsIcEENS_9allocatorIcEEE5clearB8ne180100Ev, symObjAddr: 0xBA50, symBinAddr: 0x10000CF50, symSize: 0x2E0 }
  - { offsetInCU: 0xE75D, offset: 0xE75D, size: 0x8, addend: 0x0, symName: __ZNSt3__115basic_streambufIcNS_11char_traitsIcEEE6sbumpcB8ne180100Ev, symObjAddr: 0xBD30, symBinAddr: 0x10000D230, symSize: 0x490 }
  - { offsetInCU: 0xE782, offset: 0xE782, size: 0x8, addend: 0x0, symName: __ZNSt3__111char_traitsIcE12to_char_typeB8ne180100Ei, symObjAddr: 0xC1C0, symBinAddr: 0x10000D6C0, symSize: 0x20 }
  - { offsetInCU: 0xE7A6, offset: 0xE7A6, size: 0x8, addend: 0x0, symName: __ZNSt3__111char_traitsIcE2eqEcc, symObjAddr: 0xC1E0, symBinAddr: 0x10000D6E0, symSize: 0x30 }
  - { offsetInCU: 0xE7D7, offset: 0xE7D7, size: 0x8, addend: 0x0, symName: __ZNKSt3__112basic_stringIcNS_11char_traitsIcEENS_9allocatorIcEEE8max_sizeB8ne180100Ev, symObjAddr: 0xC210, symBinAddr: 0x10000D710, symSize: 0x170 }
  - { offsetInCU: 0xE828, offset: 0xE828, size: 0x8, addend: 0x0, symName: __ZNSt3__18ios_base18__setstate_nothrowB8ne180100Ej, symObjAddr: 0xC380, symBinAddr: 0x10000D880, symSize: 0x2F0 }
  - { offsetInCU: 0xE85C, offset: 0xE85C, size: 0x8, addend: 0x0, symName: __ZNKSt3__19basic_iosIcNS_11char_traitsIcEEE10exceptionsB8ne180100Ev, symObjAddr: 0xC670, symBinAddr: 0x10000DB70, symSize: 0x100 }
  - { offsetInCU: 0xE881, offset: 0xE881, size: 0x8, addend: 0x0, symName: __ZNSt3__111char_traitsIcE11to_int_typeB8ne180100Ec, symObjAddr: 0xC770, symBinAddr: 0x10000DC70, symSize: 0x20 }
  - { offsetInCU: 0xE8AF, offset: 0xE8AF, size: 0x8, addend: 0x0, symName: __ZNSt3__116allocator_traitsINS_9allocatorIcEEE8max_sizeB8ne180100IS2_vEEmRKS2_, symObjAddr: 0xC790, symBinAddr: 0x10000DC90, symSize: 0x30 }
  - { offsetInCU: 0xE8DD, offset: 0xE8DD, size: 0x8, addend: 0x0, symName: __ZNKSt3__112basic_stringIcNS_11char_traitsIcEENS_9allocatorIcEEE7__allocB8ne180100Ev, symObjAddr: 0xC7C0, symBinAddr: 0x10000DCC0, symSize: 0xB0 }
  - { offsetInCU: 0xE902, offset: 0xE902, size: 0x8, addend: 0x0, symName: __ZNSt3__114numeric_limitsImE3maxB8ne180100Ev, symObjAddr: 0xC870, symBinAddr: 0x10000DD70, symSize: 0x20 }
  - { offsetInCU: 0xE916, offset: 0xE916, size: 0x8, addend: 0x0, symName: __ZNKSt3__19allocatorIcE8max_sizeB8ne180100Ev, symObjAddr: 0xC890, symBinAddr: 0x10000DD90, symSize: 0x40 }
  - { offsetInCU: 0xE93B, offset: 0xE93B, size: 0x8, addend: 0x0, symName: __ZNKSt3__117__compressed_pairINS_12basic_stringIcNS_11char_traitsIcEENS_9allocatorIcEEE5__repES5_E6secondB8ne180100Ev, symObjAddr: 0xC8D0, symBinAddr: 0x10000DDD0, symSize: 0xD0 }
  - { offsetInCU: 0xE960, offset: 0xE960, size: 0x8, addend: 0x0, symName: __ZNKSt3__122__compressed_pair_elemINS_9allocatorIcEELi1ELb1EE5__getB8ne180100Ev, symObjAddr: 0xC9A0, symBinAddr: 0x10000DEA0, symSize: 0x60 }
  - { offsetInCU: 0xE985, offset: 0xE985, size: 0x8, addend: 0x0, symName: __ZNSt3__123__libcpp_numeric_limitsImLb1EE3maxB8ne180100Ev, symObjAddr: 0xCA00, symBinAddr: 0x10000DF00, symSize: 0x20 }
  - { offsetInCU: 0xE998, offset: 0xE998, size: 0x8, addend: 0x0, symName: __ZNKSt3__18ios_base10exceptionsB8ne180100Ev, symObjAddr: 0xCA20, symBinAddr: 0x10000DF20, symSize: 0x120 }
  - { offsetInCU: 0xE9BF, offset: 0xE9BF, size: 0x8, addend: 0x0, symName: __ZNKSt3__19basic_iosIcNS_11char_traitsIcEEE4failB8ne180100Ev, symObjAddr: 0xCB40, symBinAddr: 0x10000E040, symSize: 0x100 }
  - { offsetInCU: 0xE9E3, offset: 0xE9E3, size: 0x8, addend: 0x0, symName: __ZNKSt3__18ios_base4failB8ne180100Ev, symObjAddr: 0xCC40, symBinAddr: 0x10000E140, symSize: 0x130 }
  - { offsetInCU: 0xEA09, offset: 0xEA09, size: 0x8, addend: 0x0, symName: __ZNSt3__112basic_stringIcNS_11char_traitsIcEENS_9allocatorIcEEE13__move_assignB8ne180100ERS5_NS_17integral_constantIbLb1EEE, symObjAddr: 0xCD70, symBinAddr: 0x10000E270, symSize: 0x5B0 }
  - { offsetInCU: 0xEA6D, offset: 0xEA6D, size: 0x8, addend: 0x0, symName: __ZNKSt3__112basic_stringIcNS_11char_traitsIcEENS_9allocatorIcEEE17__annotate_deleteB8ne180100Ev, symObjAddr: 0xD320, symBinAddr: 0x10000E820, symSize: 0x50 }
  - { offsetInCU: 0xEA92, offset: 0xEA92, size: 0x8, addend: 0x0, symName: __ZNSt3__116allocator_traitsINS_9allocatorIcEEE10deallocateB8ne180100ERS2_Pcm, symObjAddr: 0xD370, symBinAddr: 0x10000E870, symSize: 0x40 }
  - { offsetInCU: 0xEAD4, offset: 0xEAD4, size: 0x8, addend: 0x0, symName: __ZNSt3__112basic_stringIcNS_11char_traitsIcEENS_9allocatorIcEEE7__allocB8ne180100Ev, symObjAddr: 0xD3B0, symBinAddr: 0x10000E8B0, symSize: 0xB0 }
  - { offsetInCU: 0xEAF9, offset: 0xEAF9, size: 0x8, addend: 0x0, symName: __ZNKSt3__112basic_stringIcNS_11char_traitsIcEENS_9allocatorIcEEE14__get_long_capB8ne180100Ev, symObjAddr: 0xD460, symBinAddr: 0x10000E960, symSize: 0x180 }
  - { offsetInCU: 0xEB1E, offset: 0xEB1E, size: 0x8, addend: 0x0, symName: __ZNSt3__112basic_stringIcNS_11char_traitsIcEENS_9allocatorIcEEE19__move_assign_allocB8ne180100ERS5_, symObjAddr: 0xD5E0, symBinAddr: 0x10000EAE0, symSize: 0x90 }
  - { offsetInCU: 0xEB52, offset: 0xEB52, size: 0x8, addend: 0x0, symName: __ZNSt3__19allocatorIcE10deallocateB8ne180100EPcm, symObjAddr: 0xD670, symBinAddr: 0x10000EB70, symSize: 0x70 }
  - { offsetInCU: 0xEB93, offset: 0xEB93, size: 0x8, addend: 0x0, symName: __ZNSt3__117__compressed_pairINS_12basic_stringIcNS_11char_traitsIcEENS_9allocatorIcEEE5__repES5_E6secondB8ne180100Ev, symObjAddr: 0xD830, symBinAddr: 0x10000ED30, symSize: 0xD0 }
  - { offsetInCU: 0xEBB8, offset: 0xEBB8, size: 0x8, addend: 0x0, symName: __ZNSt3__122__compressed_pair_elemINS_9allocatorIcEELi1ELb1EE5__getB8ne180100Ev, symObjAddr: 0xD900, symBinAddr: 0x10000EE00, symSize: 0x60 }
  - { offsetInCU: 0xEBDD, offset: 0xEBDD, size: 0x8, addend: 0x0, symName: __ZNSt3__112basic_stringIcNS_11char_traitsIcEENS_9allocatorIcEEE19__move_assign_allocB8ne180100ERS5_NS_17integral_constantIbLb1EEE, symObjAddr: 0xD960, symBinAddr: 0x10000EE60, symSize: 0x90 }
  - { offsetInCU: 0xEC1C, offset: 0xEC1C, size: 0x8, addend: 0x0, symName: __ZNSt3__16vectorIPcNS_9allocatorIS1_EEEC2B8ne180100Ev, symObjAddr: 0xD9F0, symBinAddr: 0x10000EEF0, symSize: 0x280 }
  - { offsetInCU: 0xEC4B, offset: 0xEC4B, size: 0x8, addend: 0x0, symName: __ZNSt3__117__compressed_pairIPPcNS_9allocatorIS1_EEEC1B8ne180100IDnNS_18__default_init_tagEEEOT_OT0_, symObjAddr: 0xDC70, symBinAddr: 0x10000F170, symSize: 0x60 }
  - { offsetInCU: 0xECA2, offset: 0xECA2, size: 0x8, addend: 0x0, symName: __ZNSt3__117__compressed_pairIPPcNS_9allocatorIS1_EEEC2B8ne180100IDnNS_18__default_init_tagEEEOT_OT0_, symObjAddr: 0xDCD0, symBinAddr: 0x10000F1D0, symSize: 0xF0 }
  - { offsetInCU: 0xECF9, offset: 0xECF9, size: 0x8, addend: 0x0, symName: __ZNSt3__122__compressed_pair_elemIPPcLi0ELb0EEC2B8ne180100IDnvEEOT_, symObjAddr: 0xDDC0, symBinAddr: 0x10000F2C0, symSize: 0x80 }
  - { offsetInCU: 0xED3A, offset: 0xED3A, size: 0x8, addend: 0x0, symName: __ZNSt3__122__compressed_pair_elemINS_9allocatorIPcEELi1ELb1EEC2B8ne180100ENS_18__default_init_tagE, symObjAddr: 0xDE40, symBinAddr: 0x10000F340, symSize: 0x60 }
  - { offsetInCU: 0xED6E, offset: 0xED6E, size: 0x8, addend: 0x0, symName: __ZNSt3__19allocatorIPcEC2B8ne180100Ev, symObjAddr: 0xDEA0, symBinAddr: 0x10000F3A0, symSize: 0x60 }
  - { offsetInCU: 0xED97, offset: 0xED97, size: 0x8, addend: 0x0, symName: __ZNSt3__116__non_trivial_ifILb1ENS_9allocatorIPcEEEC2B8ne180100Ev, symObjAddr: 0xDF00, symBinAddr: 0x10000F400, symSize: 0x40 }
  - { offsetInCU: 0xEDC0, offset: 0xEDC0, size: 0x8, addend: 0x0, symName: __ZNSt3__16vectorIPcNS_9allocatorIS1_EEED2B8ne180100Ev, symObjAddr: 0xDF40, symBinAddr: 0x10000F440, symSize: 0x1E0 }
  - { offsetInCU: 0xEDEA, offset: 0xEDEA, size: 0x8, addend: 0x0, symName: __ZNSt3__16vectorIPcNS_9allocatorIS1_EEE16__destroy_vectorC1B8ne180100ERS4_, symObjAddr: 0xE120, symBinAddr: 0x10000F620, symSize: 0x60 }
  - { offsetInCU: 0xEE22, offset: 0xEE22, size: 0x8, addend: 0x0, symName: __ZNSt3__16vectorIPcNS_9allocatorIS1_EEE16__destroy_vectorclB8ne180100Ev, symObjAddr: 0xE180, symBinAddr: 0x10000F680, symSize: 0x350 }
  - { offsetInCU: 0xEE47, offset: 0xEE47, size: 0x8, addend: 0x0, symName: __ZNSt3__16vectorIPcNS_9allocatorIS1_EEE16__destroy_vectorC2B8ne180100ERS4_, symObjAddr: 0xE4D0, symBinAddr: 0x10000F9D0, symSize: 0xC0 }
  - { offsetInCU: 0xEE7F, offset: 0xEE7F, size: 0x8, addend: 0x0, symName: __ZNSt3__16vectorIPcNS_9allocatorIS1_EEE7__clearB8ne180100Ev, symObjAddr: 0xE590, symBinAddr: 0x10000FA90, symSize: 0x80 }
  - { offsetInCU: 0xEEA4, offset: 0xEEA4, size: 0x8, addend: 0x0, symName: __ZNKSt3__16vectorIPcNS_9allocatorIS1_EEE17__annotate_deleteB8ne180100Ev, symObjAddr: 0xE610, symBinAddr: 0x10000FB10, symSize: 0x150 }
  - { offsetInCU: 0xEEC9, offset: 0xEEC9, size: 0x8, addend: 0x0, symName: __ZNSt3__116allocator_traitsINS_9allocatorIPcEEE10deallocateB8ne180100ERS3_PS2_m, symObjAddr: 0xE760, symBinAddr: 0x10000FC60, symSize: 0x40 }
  - { offsetInCU: 0xEF0B, offset: 0xEF0B, size: 0x8, addend: 0x0, symName: __ZNSt3__16vectorIPcNS_9allocatorIS1_EEE7__allocB8ne180100Ev, symObjAddr: 0xE7A0, symBinAddr: 0x10000FCA0, symSize: 0xB0 }
  - { offsetInCU: 0xEF30, offset: 0xEF30, size: 0x8, addend: 0x0, symName: __ZNKSt3__16vectorIPcNS_9allocatorIS1_EEE8capacityB8ne180100Ev, symObjAddr: 0xE850, symBinAddr: 0x10000FD50, symSize: 0x100 }
  - { offsetInCU: 0xEF55, offset: 0xEF55, size: 0x8, addend: 0x0, symName: __ZNSt3__16vectorIPcNS_9allocatorIS1_EEE22__base_destruct_at_endB8ne180100EPS1_, symObjAddr: 0xE950, symBinAddr: 0x10000FE50, symSize: 0x190 }
  - { offsetInCU: 0xEF98, offset: 0xEF98, size: 0x8, addend: 0x0, symName: __ZNSt3__116allocator_traitsINS_9allocatorIPcEEE7destroyB8ne180100IS2_vEEvRS3_PT_, symObjAddr: 0xEAE0, symBinAddr: 0x10000FFE0, symSize: 0x30 }
  - { offsetInCU: 0xEFD5, offset: 0xEFD5, size: 0x8, addend: 0x0, symName: __ZNSt3__19allocatorIPcE7destroyB8ne180100EPS1_, symObjAddr: 0xEB30, symBinAddr: 0x100010030, symSize: 0x40 }
  - { offsetInCU: 0xF008, offset: 0xF008, size: 0x8, addend: 0x0, symName: __ZNKSt3__16vectorIPcNS_9allocatorIS1_EEE31__annotate_contiguous_containerB8ne180100EPKvS6_, symObjAddr: 0xEB70, symBinAddr: 0x100010070, symSize: 0x100 }
  - { offsetInCU: 0xF069, offset: 0xF069, size: 0x8, addend: 0x0, symName: __ZNKSt3__16vectorIPcNS_9allocatorIS1_EEE4dataB8ne180100Ev, symObjAddr: 0xEC70, symBinAddr: 0x100010170, symSize: 0x80 }
  - { offsetInCU: 0xF08E, offset: 0xF08E, size: 0x8, addend: 0x0, symName: __ZNKSt3__16vectorIPcNS_9allocatorIS1_EEE4sizeB8ne180100Ev, symObjAddr: 0xECF0, symBinAddr: 0x1000101F0, symSize: 0xC0 }
  - { offsetInCU: 0xF0B3, offset: 0xF0B3, size: 0x8, addend: 0x0, symName: __ZNSt3__19allocatorIPcE10deallocateB8ne180100EPS1_m, symObjAddr: 0xEDB0, symBinAddr: 0x1000102B0, symSize: 0x70 }
  - { offsetInCU: 0xF0F4, offset: 0xF0F4, size: 0x8, addend: 0x0, symName: __ZNSt3__117__compressed_pairIPPcNS_9allocatorIS1_EEE6secondB8ne180100Ev, symObjAddr: 0xEE20, symBinAddr: 0x100010320, symSize: 0xD0 }
  - { offsetInCU: 0xF119, offset: 0xF119, size: 0x8, addend: 0x0, symName: __ZNSt3__122__compressed_pair_elemINS_9allocatorIPcEELi1ELb1EE5__getB8ne180100Ev, symObjAddr: 0xEEF0, symBinAddr: 0x1000103F0, symSize: 0x60 }
  - { offsetInCU: 0xF13E, offset: 0xF13E, size: 0x8, addend: 0x0, symName: __ZNKSt3__16vectorIPcNS_9allocatorIS1_EEE9__end_capB8ne180100Ev, symObjAddr: 0xEF50, symBinAddr: 0x100010450, symSize: 0xC0 }
  - { offsetInCU: 0xF163, offset: 0xF163, size: 0x8, addend: 0x0, symName: __ZNKSt3__117__compressed_pairIPPcNS_9allocatorIS1_EEE5firstB8ne180100Ev, symObjAddr: 0xF010, symBinAddr: 0x100010510, symSize: 0xE0 }
  - { offsetInCU: 0xF188, offset: 0xF188, size: 0x8, addend: 0x0, symName: __ZNKSt3__122__compressed_pair_elemIPPcLi0ELb0EE5__getB8ne180100Ev, symObjAddr: 0xF0F0, symBinAddr: 0x1000105F0, symSize: 0x80 }
  - { offsetInCU: 0xF1AD, offset: 0xF1AD, size: 0x8, addend: 0x0, symName: __ZNSt3__16vectorINS_12basic_stringIcNS_11char_traitsIcEENS_9allocatorIcEEEENS4_IS6_EEE11__make_iterB8ne180100EPS6_, symObjAddr: 0xF170, symBinAddr: 0x100010670, symSize: 0x1B0 }
  - { offsetInCU: 0xF1E3, offset: 0xF1E3, size: 0x8, addend: 0x0, symName: __ZNSt3__111__wrap_iterIPNS_12basic_stringIcNS_11char_traitsIcEENS_9allocatorIcEEEEEC1B8ne180100ES7_, symObjAddr: 0xF320, symBinAddr: 0x100010820, symSize: 0x60 }
  - { offsetInCU: 0xF21A, offset: 0xF21A, size: 0x8, addend: 0x0, symName: __ZNSt3__111__wrap_iterIPNS_12basic_stringIcNS_11char_traitsIcEENS_9allocatorIcEEEEEC2B8ne180100ES7_, symObjAddr: 0xF380, symBinAddr: 0x100010880, symSize: 0x90 }
  - { offsetInCU: 0xF251, offset: 0xF251, size: 0x8, addend: 0x0, symName: __ZNSt3__16vectorIPcNS_9allocatorIS1_EEE9__end_capB8ne180100Ev, symObjAddr: 0xF410, symBinAddr: 0x100010910, symSize: 0xC0 }
  - { offsetInCU: 0xF27B, offset: 0xF27B, size: 0x8, addend: 0x0, symName: __ZNSt3__16vectorIPcNS_9allocatorIS1_EEE22__construct_one_at_endB8ne180100IJS1_EEEvDpOT_, symObjAddr: 0xF4D0, symBinAddr: 0x1000109D0, symSize: 0x450 }
  - { offsetInCU: 0xF2CE, offset: 0xF2CE, size: 0x8, addend: 0x0, symName: __ZNSt3__16vectorIPcNS_9allocatorIS1_EEE21__push_back_slow_pathIS1_EEPS1_OT_, symObjAddr: 0xF920, symBinAddr: 0x100010E20, symSize: 0x540 }
  - { offsetInCU: 0xF332, offset: 0xF332, size: 0x8, addend: 0x0, symName: __ZNSt3__117__compressed_pairIPPcNS_9allocatorIS1_EEE5firstB8ne180100Ev, symObjAddr: 0xFE60, symBinAddr: 0x100011360, symSize: 0xE0 }
  - { offsetInCU: 0xF357, offset: 0xF357, size: 0x8, addend: 0x0, symName: __ZNSt3__122__compressed_pair_elemIPPcLi0ELb0EE5__getB8ne180100Ev, symObjAddr: 0xFF40, symBinAddr: 0x100011440, symSize: 0x80 }
  - { offsetInCU: 0xF395, offset: 0xF395, size: 0x8, addend: 0x0, symName: __ZNSt3__16vectorIPcNS_9allocatorIS1_EEE21_ConstructTransactionC1B8ne180100ERS4_m, symObjAddr: 0xFFC0, symBinAddr: 0x1000114C0, symSize: 0x60 }
  - { offsetInCU: 0xF3DC, offset: 0xF3DC, size: 0x8, addend: 0x0, symName: __ZNSt3__116allocator_traitsINS_9allocatorIPcEEE9constructB8ne180100IS2_JS2_EvEEvRS3_PT_DpOT0_, symObjAddr: 0x10020, symBinAddr: 0x100011520, symSize: 0x80 }
  - { offsetInCU: 0xF433, offset: 0xF433, size: 0x8, addend: 0x0, symName: __ZNSt3__16vectorIPcNS_9allocatorIS1_EEE21_ConstructTransactionD1B8ne180100Ev, symObjAddr: 0x100A0, symBinAddr: 0x1000115A0, symSize: 0x50 }
  - { offsetInCU: 0xF45C, offset: 0xF45C, size: 0x8, addend: 0x0, symName: __ZNSt3__16vectorIPcNS_9allocatorIS1_EEE21_ConstructTransactionC2B8ne180100ERS4_m, symObjAddr: 0x100F0, symBinAddr: 0x1000115F0, symSize: 0x2B0 }
  - { offsetInCU: 0xF4A3, offset: 0xF4A3, size: 0x8, addend: 0x0, symName: __ZNKSt3__16vectorIPcNS_9allocatorIS1_EEE19__annotate_increaseB8ne180100Em, symObjAddr: 0x103A0, symBinAddr: 0x1000118A0, symSize: 0x1C0 }
  - { offsetInCU: 0xF4D7, offset: 0xF4D7, size: 0x8, addend: 0x0, symName: __ZNSt3__19allocatorIPcE9constructB8ne180100IS1_JS1_EEEvPT_DpOT0_, symObjAddr: 0x10560, symBinAddr: 0x100011A60, symSize: 0x110 }
  - { offsetInCU: 0xF52C, offset: 0xF52C, size: 0x8, addend: 0x0, symName: __ZNSt3__16vectorIPcNS_9allocatorIS1_EEE21_ConstructTransactionD2B8ne180100Ev, symObjAddr: 0x10670, symBinAddr: 0x100011B70, symSize: 0x2E0 }
  - { offsetInCU: 0xF555, offset: 0xF555, size: 0x8, addend: 0x0, symName: __ZNKSt3__16vectorIPcNS_9allocatorIS1_EEE17__annotate_shrinkB8ne180100Em, symObjAddr: 0x10950, symBinAddr: 0x100011E50, symSize: 0x150 }
  - { offsetInCU: 0xF588, offset: 0xF588, size: 0x8, addend: 0x0, symName: __ZNKSt3__16vectorIPcNS_9allocatorIS1_EEE11__recommendB8ne180100Em, symObjAddr: 0x10AA0, symBinAddr: 0x100011FA0, symSize: 0x390 }
  - { offsetInCU: 0xF5E3, offset: 0xF5E3, size: 0x8, addend: 0x0, symName: __ZNSt3__114__split_bufferIPcRNS_9allocatorIS1_EEEC1EmmS4_, symObjAddr: 0x10E30, symBinAddr: 0x100012330, symSize: 0x70 }
  - { offsetInCU: 0xF638, offset: 0xF638, size: 0x8, addend: 0x0, symName: __ZNSt3__114__split_bufferIPcRNS_9allocatorIS1_EEED1Ev, symObjAddr: 0x117B0, symBinAddr: 0x100012CB0, symSize: 0x50 }
  - { offsetInCU: 0xF662, offset: 0xF662, size: 0x8, addend: 0x0, symName: __ZNKSt3__16vectorIPcNS_9allocatorIS1_EEE8max_sizeEv, symObjAddr: 0x11800, symBinAddr: 0x100012D00, symSize: 0x2F0 }
  - { offsetInCU: 0xF68A, offset: 0xF68A, size: 0x8, addend: 0x0, symName: __ZNKSt3__16vectorIPcNS_9allocatorIS1_EEE20__throw_length_errorB8ne180100Ev, symObjAddr: 0x11AF0, symBinAddr: 0x100012FF0, symSize: 0x70 }
  - { offsetInCU: 0xF6B9, offset: 0xF6B9, size: 0x8, addend: 0x0, symName: __ZNSt3__116allocator_traitsINS_9allocatorIPcEEE8max_sizeB8ne180100IS3_vEEmRKS3_, symObjAddr: 0x11D00, symBinAddr: 0x100013200, symSize: 0x30 }
  - { offsetInCU: 0xF6E7, offset: 0xF6E7, size: 0x8, addend: 0x0, symName: __ZNKSt3__16vectorIPcNS_9allocatorIS1_EEE7__allocB8ne180100Ev, symObjAddr: 0x11D30, symBinAddr: 0x100013230, symSize: 0xB0 }
  - { offsetInCU: 0xF70C, offset: 0xF70C, size: 0x8, addend: 0x0, symName: __ZNSt3__114numeric_limitsIlE3maxB8ne180100Ev, symObjAddr: 0x11DE0, symBinAddr: 0x1000132E0, symSize: 0x20 }
  - { offsetInCU: 0xF734, offset: 0xF734, size: 0x8, addend: 0x0, symName: __ZNKSt3__16__lessIvvEclB8ne180100ImmEEbRKT_RKT0_, symObjAddr: 0x12020, symBinAddr: 0x100013520, symSize: 0xC0 }
  - { offsetInCU: 0xF787, offset: 0xF787, size: 0x8, addend: 0x0, symName: __ZNKSt3__19allocatorIPcE8max_sizeB8ne180100Ev, symObjAddr: 0x120E0, symBinAddr: 0x1000135E0, symSize: 0x40 }
  - { offsetInCU: 0xF7AC, offset: 0xF7AC, size: 0x8, addend: 0x0, symName: __ZNKSt3__117__compressed_pairIPPcNS_9allocatorIS1_EEE6secondB8ne180100Ev, symObjAddr: 0x12120, symBinAddr: 0x100013620, symSize: 0xD0 }
  - { offsetInCU: 0xF7D1, offset: 0xF7D1, size: 0x8, addend: 0x0, symName: __ZNKSt3__122__compressed_pair_elemINS_9allocatorIPcEELi1ELb1EE5__getB8ne180100Ev, symObjAddr: 0x121F0, symBinAddr: 0x1000136F0, symSize: 0x60 }
  - { offsetInCU: 0xF7F6, offset: 0xF7F6, size: 0x8, addend: 0x0, symName: __ZNSt3__123__libcpp_numeric_limitsIlLb1EE3maxB8ne180100Ev, symObjAddr: 0x12250, symBinAddr: 0x100013750, symSize: 0x20 }
  - { offsetInCU: 0xF80A, offset: 0xF80A, size: 0x8, addend: 0x0, symName: __ZNSt12length_errorC1B8ne180100EPKc, symObjAddr: 0x12320, symBinAddr: 0x100013820, symSize: 0x60 }
  - { offsetInCU: 0xF841, offset: 0xF841, size: 0x8, addend: 0x0, symName: __ZNSt12length_errorC2B8ne180100EPKc, symObjAddr: 0x12380, symBinAddr: 0x100013880, symSize: 0xD0 }
  - { offsetInCU: 0xF878, offset: 0xF878, size: 0x8, addend: 0x0, symName: __ZNSt3__114__split_bufferIPcRNS_9allocatorIS1_EEEC2EmmS4_, symObjAddr: 0x12670, symBinAddr: 0x100013B70, symSize: 0x6C0 }
  - { offsetInCU: 0xF8F2, offset: 0xF8F2, size: 0x8, addend: 0x0, symName: __ZNSt3__117__compressed_pairIPPcRNS_9allocatorIS1_EEEC1B8ne180100IDnS5_EEOT_OT0_, symObjAddr: 0x12D30, symBinAddr: 0x100014230, symSize: 0x60 }
  - { offsetInCU: 0xF949, offset: 0xF949, size: 0x8, addend: 0x0, symName: __ZNSt3__114__split_bufferIPcRNS_9allocatorIS1_EEE7__allocB8ne180100Ev, symObjAddr: 0x12FA0, symBinAddr: 0x1000144A0, symSize: 0xB0 }
  - { offsetInCU: 0xF96E, offset: 0xF96E, size: 0x8, addend: 0x0, symName: __ZNSt3__114__split_bufferIPcRNS_9allocatorIS1_EEE9__end_capB8ne180100Ev, symObjAddr: 0x13050, symBinAddr: 0x100014550, symSize: 0xC0 }
  - { offsetInCU: 0xF993, offset: 0xF993, size: 0x8, addend: 0x0, symName: __ZNSt3__117__compressed_pairIPPcRNS_9allocatorIS1_EEEC2B8ne180100IDnS5_EEOT_OT0_, symObjAddr: 0x13110, symBinAddr: 0x100014610, symSize: 0x130 }
  - { offsetInCU: 0xF9EA, offset: 0xF9EA, size: 0x8, addend: 0x0, symName: __ZNSt3__122__compressed_pair_elemIRNS_9allocatorIPcEELi1ELb0EEC2B8ne180100IS4_vEEOT_, symObjAddr: 0x13240, symBinAddr: 0x100014740, symSize: 0xA0 }
  - { offsetInCU: 0xFA2B, offset: 0xFA2B, size: 0x8, addend: 0x0, symName: __ZNSt3__19allocatorIPcE8allocateB8ne180100Em, symObjAddr: 0x132E0, symBinAddr: 0x1000147E0, symSize: 0xB0 }
  - { offsetInCU: 0xFA5E, offset: 0xFA5E, size: 0x8, addend: 0x0, symName: __ZNSt3__117__compressed_pairIPPcRNS_9allocatorIS1_EEE6secondB8ne180100Ev, symObjAddr: 0x13520, symBinAddr: 0x100014A20, symSize: 0xD0 }
  - { offsetInCU: 0xFA83, offset: 0xFA83, size: 0x8, addend: 0x0, symName: __ZNSt3__122__compressed_pair_elemIRNS_9allocatorIPcEELi1ELb0EE5__getB8ne180100Ev, symObjAddr: 0x135F0, symBinAddr: 0x100014AF0, symSize: 0xA0 }
  - { offsetInCU: 0xFAA8, offset: 0xFAA8, size: 0x8, addend: 0x0, symName: __ZNSt3__117__compressed_pairIPPcRNS_9allocatorIS1_EEE5firstB8ne180100Ev, symObjAddr: 0x13690, symBinAddr: 0x100014B90, symSize: 0xE0 }
  - { offsetInCU: 0xFACD, offset: 0xFACD, size: 0x8, addend: 0x0, symName: __ZNSt3__116reverse_iteratorIPPcEC1B8ne180100ES2_, symObjAddr: 0x13D80, symBinAddr: 0x100015280, symSize: 0x60 }
  - { offsetInCU: 0xFB04, offset: 0xFB04, size: 0x8, addend: 0x0, symName: __ZNKSt3__116reverse_iteratorIPPcE4baseB8ne180100Ev, symObjAddr: 0x13DE0, symBinAddr: 0x1000152E0, symSize: 0x80 }
  - { offsetInCU: 0xFB29, offset: 0xFB29, size: 0x8, addend: 0x0, symName: __ZNKSt3__16vectorIPcNS_9allocatorIS1_EEE14__annotate_newB8ne180100Em, symObjAddr: 0x13FD0, symBinAddr: 0x1000154D0, symSize: 0x150 }
  - { offsetInCU: 0xFB80, offset: 0xFB80, size: 0x8, addend: 0x0, symName: __ZNKSt3__111__move_loopINS_17_ClassicAlgPolicyEEclB8ne180100INS_16reverse_iteratorIPPcEES7_S7_EENS_4pairIT_T1_EES9_T0_SA_, symObjAddr: 0x16530, symBinAddr: 0x100017A30, symSize: 0x490 }
  - { offsetInCU: 0xFBFC, offset: 0xFBFC, size: 0x8, addend: 0x0, symName: __ZNSt3__18_IterOpsINS_17_ClassicAlgPolicyEE11__iter_moveB8ne180100IRNS_16reverse_iteratorIPPcEELi0EEEDTclsr3stdE4movedeclsr3stdE7declvalIRT_EEEEOS9_, symObjAddr: 0x17860, symBinAddr: 0x100018D60, symSize: 0xA0 }
  - { offsetInCU: 0xFC2E, offset: 0xFC2E, size: 0x8, addend: 0x0, symName: __ZNKSt3__116reverse_iteratorIPPcEdeB8ne180100Ev, symObjAddr: 0x17900, symBinAddr: 0x100018E00, symSize: 0x110 }
  - { offsetInCU: 0xFC61, offset: 0xFC61, size: 0x8, addend: 0x0, symName: __ZNSt3__116reverse_iteratorIPPcEppB8ne180100Ev, symObjAddr: 0x17A10, symBinAddr: 0x100018F10, symSize: 0x130 }
  - { offsetInCU: 0xFC86, offset: 0xFC86, size: 0x8, addend: 0x0, symName: __ZNSt3__18_IterOpsINS_17_ClassicAlgPolicyEE25__validate_iter_referenceB8ne180100IRNS_16reverse_iteratorIPPcEEEEvv, symObjAddr: 0x17B40, symBinAddr: 0x100019040, symSize: 0x10 }
  - { offsetInCU: 0xFCA4, offset: 0xFCA4, size: 0x8, addend: 0x0, symName: __ZNSt3__118__unwrap_iter_implINS_16reverse_iteratorIPPcEELb0EE8__unwrapB8ne180100ES4_, symObjAddr: 0x17B50, symBinAddr: 0x100019050, symSize: 0x230 }
  - { offsetInCU: 0xFCD0, offset: 0xFCD0, size: 0x8, addend: 0x0, symName: __ZNSt3__14pairINS_16reverse_iteratorIPPcEES4_EC1B8ne180100IS4_S4_Li0EEEOT_OT0_, symObjAddr: 0x17D80, symBinAddr: 0x100019280, symSize: 0x60 }
  - { offsetInCU: 0xFD2D, offset: 0xFD2D, size: 0x8, addend: 0x0, symName: __ZNSt3__14pairINS_16reverse_iteratorIPPcEES4_EC2B8ne180100IS4_S4_Li0EEEOT_OT0_, symObjAddr: 0x17DE0, symBinAddr: 0x1000192E0, symSize: 0x80 }
  - { offsetInCU: 0xFD8A, offset: 0xFD8A, size: 0x8, addend: 0x0, symName: __ZNSt3__118__unwrap_iter_implINS_16reverse_iteratorIPPcEELb0EE8__rewrapB8ne180100ES4_S4_, symObjAddr: 0x17E60, symBinAddr: 0x100019360, symSize: 0x2D0 }
  - { offsetInCU: 0xFDC0, offset: 0xFDC0, size: 0x8, addend: 0x0, symName: __ZNSt3__116reverse_iteratorIPPcEC2B8ne180100ES2_, symObjAddr: 0x18130, symBinAddr: 0x100019630, symSize: 0xD0 }
  - { offsetInCU: 0xFDF7, offset: 0xFDF7, size: 0x8, addend: 0x0, symName: __ZNSt3__114__split_bufferIPcRNS_9allocatorIS1_EEED2Ev, symObjAddr: 0x18200, symBinAddr: 0x100019700, symSize: 0x120 }
  - { offsetInCU: 0xFE22, offset: 0xFE22, size: 0x8, addend: 0x0, symName: __ZNSt3__114__split_bufferIPcRNS_9allocatorIS1_EEE5clearB8ne180100Ev, symObjAddr: 0x18320, symBinAddr: 0x100019820, symSize: 0x90 }
  - { offsetInCU: 0xFE47, offset: 0xFE47, size: 0x8, addend: 0x0, symName: __ZNKSt3__114__split_bufferIPcRNS_9allocatorIS1_EEE8capacityB8ne180100Ev, symObjAddr: 0x183B0, symBinAddr: 0x1000198B0, symSize: 0x100 }
  - { offsetInCU: 0xFE6C, offset: 0xFE6C, size: 0x8, addend: 0x0, symName: __ZNSt3__114__split_bufferIPcRNS_9allocatorIS1_EEE17__destruct_at_endB8ne180100EPS1_, symObjAddr: 0x184B0, symBinAddr: 0x1000199B0, symSize: 0x60 }
  - { offsetInCU: 0xFE9E, offset: 0xFE9E, size: 0x8, addend: 0x0, symName: __ZNSt3__114__split_bufferIPcRNS_9allocatorIS1_EEE17__destruct_at_endB8ne180100EPS1_NS_17integral_constantIbLb0EEE, symObjAddr: 0x18510, symBinAddr: 0x100019A10, symSize: 0x1B0 }
  - { offsetInCU: 0xFEDE, offset: 0xFEDE, size: 0x8, addend: 0x0, symName: __ZNKSt3__114__split_bufferIPcRNS_9allocatorIS1_EEE9__end_capB8ne180100Ev, symObjAddr: 0x186C0, symBinAddr: 0x100019BC0, symSize: 0xC0 }
  - { offsetInCU: 0xFF03, offset: 0xFF03, size: 0x8, addend: 0x0, symName: __ZNKSt3__117__compressed_pairIPPcRNS_9allocatorIS1_EEE5firstB8ne180100Ev, symObjAddr: 0x18780, symBinAddr: 0x100019C80, symSize: 0xE0 }
  - { offsetInCU: 0x3B, offset: 0x1011E, size: 0x8, addend: 0x0, symName: _.str, symObjAddr: 0x29960, symBinAddr: 0x100052120, symSize: 0x0 }
  - { offsetInCU: 0x6B, offset: 0x1014E, size: 0x8, addend: 0x0, symName: _.str.1, symObjAddr: 0x26600, symBinAddr: 0x10004AD20, symSize: 0x0 }
  - { offsetInCU: 0x88, offset: 0x1016B, size: 0x8, addend: 0x0, symName: _.str.2, symObjAddr: 0x29980, symBinAddr: 0x100052140, symSize: 0x0 }
  - { offsetInCU: 0xA5, offset: 0x10188, size: 0x8, addend: 0x0, symName: _.str.3, symObjAddr: 0x299A0, symBinAddr: 0x100052160, symSize: 0x0 }
  - { offsetInCU: 0xB6, offset: 0x10199, size: 0x8, addend: 0x0, symName: _.str.4, symObjAddr: 0x299C0, symBinAddr: 0x100052180, symSize: 0x0 }
  - { offsetInCU: 0xD3, offset: 0x101B6, size: 0x8, addend: 0x0, symName: _.str.5, symObjAddr: 0x299E0, symBinAddr: 0x1000521A0, symSize: 0x0 }
  - { offsetInCU: 0xE4, offset: 0x101C7, size: 0x8, addend: 0x0, symName: _.str.6, symObjAddr: 0x29A00, symBinAddr: 0x1000521C0, symSize: 0x0 }
  - { offsetInCU: 0xF5, offset: 0x101D8, size: 0x8, addend: 0x0, symName: _.str.7, symObjAddr: 0x29A20, symBinAddr: 0x1000521E0, symSize: 0x0 }
  - { offsetInCU: 0x106, offset: 0x101E9, size: 0x8, addend: 0x0, symName: _.str.8, symObjAddr: 0x29A40, symBinAddr: 0x100052200, symSize: 0x0 }
  - { offsetInCU: 0x123, offset: 0x10206, size: 0x8, addend: 0x0, symName: _.str.9, symObjAddr: 0x29A60, symBinAddr: 0x100052220, symSize: 0x0 }
  - { offsetInCU: 0x134, offset: 0x10217, size: 0x8, addend: 0x0, symName: _.str.10, symObjAddr: 0x29A80, symBinAddr: 0x100052240, symSize: 0x0 }
  - { offsetInCU: 0x145, offset: 0x10228, size: 0x8, addend: 0x0, symName: _.str.11, symObjAddr: 0x29AA0, symBinAddr: 0x100052260, symSize: 0x0 }
  - { offsetInCU: 0x163, offset: 0x10246, size: 0x8, addend: 0x0, symName: _.str.61, symObjAddr: 0x29AC0, symBinAddr: 0x100052280, symSize: 0x0 }
  - { offsetInCU: 0x3C6D, offset: 0x13D50, size: 0x8, addend: 0x0, symName: __ZNSt3__17advanceB8ne180100IPNS_12basic_stringIcNS_11char_traitsIcEENS_9allocatorIcEEEEllvEEvRT_T0_, symObjAddr: 0xAA50, symBinAddr: 0x1000220F0, symSize: 0x70 }
  - { offsetInCU: 0x5028, offset: 0x1510B, size: 0x8, addend: 0x0, symName: __ZNSt3__1neB8ne180100IcNS_11char_traitsIcEENS_9allocatorIcEEEEbRKNS_12basic_stringIT_T0_T1_EEPKS6_, symObjAddr: 0x3620, symBinAddr: 0x10001D0E0, symSize: 0x70 }
  - { offsetInCU: 0x5080, offset: 0x15163, size: 0x8, addend: 0x0, symName: __ZNSt3__1plB8ne180100IcNS_11char_traitsIcEENS_9allocatorIcEEEENS_12basic_stringIT_T0_T1_EEOS9_SA_, symObjAddr: 0x3A70, symBinAddr: 0x10001D530, symSize: 0x110 }
  - { offsetInCU: 0x50D8, offset: 0x151BB, size: 0x8, addend: 0x0, symName: __ZNSt3__112__to_addressB8ne180100INS_12basic_stringIcNS_11char_traitsIcEENS_9allocatorIcEEEEEEPT_S8_, symObjAddr: 0x6380, symBinAddr: 0x10001FA20, symSize: 0x20 }
  - { offsetInCU: 0x510D, offset: 0x151F0, size: 0x8, addend: 0x0, symName: __ZNSt3__18distanceB8ne180100IPNS_12basic_stringIcNS_11char_traitsIcEENS_9allocatorIcEEEEEENS_15iterator_traitsIT_E15difference_typeES9_S9_, symObjAddr: 0x9520, symBinAddr: 0x100020BC0, symSize: 0x30 }
  - { offsetInCU: 0x5150, offset: 0x15233, size: 0x8, addend: 0x0, symName: __ZNSt3__14nextB8ne180100IPNS_12basic_stringIcNS_11char_traitsIcEENS_9allocatorIcEEEELi0EEET_S8_NS_15iterator_traitsIS8_E15difference_typeE, symObjAddr: 0x9550, symBinAddr: 0x100020BF0, symSize: 0x1C0 }
  - { offsetInCU: 0x519E, offset: 0x15281, size: 0x8, addend: 0x0, symName: __ZNSt3__14copyB8ne180100IPNS_12basic_stringIcNS_11char_traitsIcEENS_9allocatorIcEEEES7_EET0_T_S9_S8_, symObjAddr: 0x9710, symBinAddr: 0x100020DB0, symSize: 0x250 }
  - { offsetInCU: 0x51FB, offset: 0x152DE, size: 0x8, addend: 0x0, symName: __ZNSt3__16__copyB8ne180100INS_17_ClassicAlgPolicyEPNS_12basic_stringIcNS_11char_traitsIcEENS_9allocatorIcEEEES8_S8_EENS_4pairIT0_T2_EESA_T1_SB_, symObjAddr: 0x9D20, symBinAddr: 0x1000213C0, symSize: 0x220 }
  - { offsetInCU: 0x526A, offset: 0x1534D, size: 0x8, addend: 0x0, symName: __ZNSt3__121__convert_to_integralB8ne180100El, symObjAddr: 0xAAC0, symBinAddr: 0x100022160, symSize: 0x20 }
  - { offsetInCU: 0x5296, offset: 0x15379, size: 0x8, addend: 0x0, symName: __ZNSt3__19__advanceB8ne180100IPNS_12basic_stringIcNS_11char_traitsIcEENS_9allocatorIcEEEEEEvRT_NS_15iterator_traitsIS8_E15difference_typeENS_26random_access_iterator_tagE, symObjAddr: 0xAAE0, symBinAddr: 0x100022180, symSize: 0x100 }
  - { offsetInCU: 0x52E1, offset: 0x153C4, size: 0x8, addend: 0x0, symName: __ZNSt3__130__uninitialized_allocator_copyB8ne180100INS_9allocatorINS_12basic_stringIcNS_11char_traitsIcEENS1_IcEEEEEEPS6_S8_S8_EET2_RT_T0_T1_S9_, symObjAddr: 0xAC40, symBinAddr: 0x1000222E0, symSize: 0x2F0 }
  - { offsetInCU: 0x5387, offset: 0x1546A, size: 0x8, addend: 0x0, symName: __ZNSt3__114__unwrap_rangeB8ne180100IPNS_12basic_stringIcNS_11char_traitsIcEENS_9allocatorIcEEEES7_EENS_4pairIT0_S9_EET_SB_, symObjAddr: 0xB400, symBinAddr: 0x100022AA0, symSize: 0x300 }
  - { offsetInCU: 0x53D5, offset: 0x154B8, size: 0x8, addend: 0x0, symName: __ZNSt3__135__uninitialized_allocator_copy_implB8ne180100INS_9allocatorINS_12basic_stringIcNS_11char_traitsIcEENS1_IcEEEEEEPS6_S8_S8_EET2_RT_T0_T1_S9_, symObjAddr: 0xB700, symBinAddr: 0x100022DA0, symSize: 0x730 }
  - { offsetInCU: 0x5481, offset: 0x15564, size: 0x8, addend: 0x0, symName: __ZNSt3__113__unwrap_iterB8ne180100IPNS_12basic_stringIcNS_11char_traitsIcEENS_9allocatorIcEEEENS_18__unwrap_iter_implIS7_Lb1EEELi0EEEDTclsrT0_8__unwrapclsr3stdE7declvalIT_EEEESB_, symObjAddr: 0xBE30, symBinAddr: 0x1000234D0, symSize: 0x30 }
  - { offsetInCU: 0x54C5, offset: 0x155A8, size: 0x8, addend: 0x0, symName: __ZNSt3__113__rewrap_iterB8ne180100IPNS_12basic_stringIcNS_11char_traitsIcEENS_9allocatorIcEEEES7_NS_18__unwrap_iter_implIS7_Lb1EEEEET_SA_T0_, symObjAddr: 0xBE60, symBinAddr: 0x100023500, symSize: 0x50 }
  - { offsetInCU: 0x551A, offset: 0x155FD, size: 0x8, addend: 0x0, symName: __ZNSt3__19make_pairB8ne180100IPNS_12basic_stringIcNS_11char_traitsIcEENS_9allocatorIcEEEES7_EENS_4pairINS_18__unwrap_ref_decayIT_E4typeENS9_IT0_E4typeEEEOSA_OSD_, symObjAddr: 0xBEB0, symBinAddr: 0x100023550, symSize: 0x210 }
  - { offsetInCU: 0x563F, offset: 0x15722, size: 0x8, addend: 0x0, symName: __ZNSt3__122__make_exception_guardB8ne180100INS_29_AllocatorDestroyRangeReverseINS_9allocatorINS_12basic_stringIcNS_11char_traitsIcEENS2_IcEEEEEEPS7_EEEENS_28__exception_guard_exceptionsIT_EESC_, symObjAddr: 0xC2B0, symBinAddr: 0x100023950, symSize: 0x2D0 }
  - { offsetInCU: 0x5678, offset: 0x1575B, size: 0x8, addend: 0x0, symName: __ZNSt3__119__allocator_destroyB8ne180100INS_9allocatorINS_12basic_stringIcNS_11char_traitsIcEENS1_IcEEEEEENS_16reverse_iteratorIPS6_EESA_EEvRT_T0_T1_, symObjAddr: 0xD340, symBinAddr: 0x1000249E0, symSize: 0x2D0 }
  - { offsetInCU: 0x56E4, offset: 0x157C7, size: 0x8, addend: 0x0, symName: __ZNSt3__1neB8ne180100IPNS_12basic_stringIcNS_11char_traitsIcEENS_9allocatorIcEEEES7_EEbRKNS_16reverse_iteratorIT_EERKNS8_IT0_EE, symObjAddr: 0xD670, symBinAddr: 0x100024D10, symSize: 0xA0 }
  - { offsetInCU: 0x5730, offset: 0x15813, size: 0x8, addend: 0x0, symName: __ZNSt3__112__to_addressB8ne180100INS_16reverse_iteratorIPNS_12basic_stringIcNS_11char_traitsIcEENS_9allocatorIcEEEEEEvEEu7__decayIDTclsr19__to_address_helperIT_EE6__callclsr3stdE7declvalIRKSA_EEEEESC_, symObjAddr: 0xD710, symBinAddr: 0x100024DB0, symSize: 0x60 }
  - { offsetInCU: 0x57E3, offset: 0x158C6, size: 0x8, addend: 0x0, symName: __ZNSt3__123__dispatch_copy_or_moveB8ne180100INS_17_ClassicAlgPolicyENS_11__copy_loopIS1_EENS_14__copy_trivialEPNS_12basic_stringIcNS_11char_traitsIcEENS_9allocatorIcEEEESB_SB_EENS_4pairIT2_T4_EESD_T3_SE_, symObjAddr: 0xE0F0, symBinAddr: 0x100025790, symSize: 0x220 }
  - { offsetInCU: 0x5864, offset: 0x15947, size: 0x8, addend: 0x0, symName: __ZNSt3__121__unwrap_and_dispatchB8ne180100INS_10__overloadINS_11__copy_loopINS_17_ClassicAlgPolicyEEENS_14__copy_trivialEEEPNS_12basic_stringIcNS_11char_traitsIcEENS_9allocatorIcEEEESD_SD_Li0EEENS_4pairIT0_T2_EESF_T1_SG_, symObjAddr: 0xE310, symBinAddr: 0x1000259B0, symSize: 0x6C0 }
  - { offsetInCU: 0x594F, offset: 0x15A32, size: 0x8, addend: 0x0, symName: __ZNSt3__114__rewrap_rangeB8ne180100IPNS_12basic_stringIcNS_11char_traitsIcEENS_9allocatorIcEEEES7_EET_S8_T0_, symObjAddr: 0xEFC0, symBinAddr: 0x100026660, symSize: 0x30 }
  - { offsetInCU: 0x599B, offset: 0x15A7E, size: 0x8, addend: 0x0, symName: __ZNSt3__119__allocate_at_leastB8ne180100INS_9allocatorINS_12basic_stringIcNS_11char_traitsIcEENS1_IcEEEEEEEENS_19__allocation_resultINS_16allocator_traitsIT_E7pointerEEERSA_m, symObjAddr: 0xF5E0, symBinAddr: 0x100026C80, symSize: 0x210 }
  - { offsetInCU: 0x59E0, offset: 0x15AC3, size: 0x8, addend: 0x0, symName: __ZNSt3__110__distanceB8ne180100IPNS_12basic_stringIcNS_11char_traitsIcEENS_9allocatorIcEEEEEENS_15iterator_traitsIT_E15difference_typeES9_S9_NS_26random_access_iterator_tagE, symObjAddr: 0x10690, symBinAddr: 0x1000272E0, symSize: 0x30 }
  - { offsetInCU: 0x5A2E, offset: 0x15B11, size: 0x8, addend: 0x0, symName: __ZNSt3__123__str_find_first_not_ofB8ne180100IcmNS_11char_traitsIcEELm18446744073709551615EEET0_PKT_S3_S6_S3_S3_, symObjAddr: 0x106C0, symBinAddr: 0x100027310, symSize: 0x250 }
  - { offsetInCU: 0x5AF8, offset: 0x15BDB, size: 0x8, addend: 0x0, symName: __ZNSt3__118__constexpr_memchrB8ne180100IKccEEPT_S3_T0_m, symObjAddr: 0x10A40, symBinAddr: 0x100027630, symSize: 0x230 }
  - { offsetInCU: 0x5B70, offset: 0x15C53, size: 0x8, addend: 0x0, symName: __ZNSt3__122__str_find_last_not_ofB8ne180100IcmNS_11char_traitsIcEELm18446744073709551615EEET0_PKT_S3_S6_S3_S3_, symObjAddr: 0x11010, symBinAddr: 0x100027860, symSize: 0x1B0 }
  - { offsetInCU: 0x5C25, offset: 0x15D08, size: 0x8, addend: 0x0, symName: __ZNSt3__110__str_findB8ne180100IcmNS_11char_traitsIcEELm18446744073709551615EEET0_PKT_S3_S6_S3_S3_, symObjAddr: 0x111C0, symBinAddr: 0x100027A10, symSize: 0x270 }
  - { offsetInCU: 0x5CCC, offset: 0x15DAF, size: 0x8, addend: 0x0, symName: __ZNSt3__118__search_substringB8ne180100IcNS_11char_traitsIcEEEEPKT_S5_S5_S5_S5_, symObjAddr: 0x11430, symBinAddr: 0x100027C80, symSize: 0x480 }
  - { offsetInCU: 0x5D70, offset: 0x15E53, size: 0x8, addend: 0x0, symName: __ZNSt3__119__str_find_first_ofB8ne180100IcmNS_11char_traitsIcEELm18446744073709551615EEET0_PKT_S3_S6_S3_S3_, symObjAddr: 0x118F0, symBinAddr: 0x100028140, symSize: 0x290 }
  - { offsetInCU: 0x5E17, offset: 0x15EFA, size: 0x8, addend: 0x0, symName: __ZNSt3__118__find_first_of_ceB8ne180100IPKcS2_RDoFbccEEET_S5_S5_T0_S6_OT1_, symObjAddr: 0x11B80, symBinAddr: 0x1000283D0, symSize: 0x2B0 }
  - { offsetInCU: 0x5EB2, offset: 0x15F95, size: 0x8, addend: 0x0, symName: __ZNSt3__142__uninitialized_allocator_move_if_noexceptB8ne180100INS_9allocatorINS_12basic_stringIcNS_11char_traitsIcEENS1_IcEEEEEENS_16reverse_iteratorIPS6_EESA_SA_EET2_RT_T0_T1_SB_, symObjAddr: 0x14800, symBinAddr: 0x10002AD00, symSize: 0x760 }
  - { offsetInCU: 0x5F67, offset: 0x1604A, size: 0x8, addend: 0x0, symName: __ZNSt3__14swapB8ne180100IPNS_12basic_stringIcNS_11char_traitsIcEENS_9allocatorIcEEEEEENS_9enable_ifIXaasr21is_move_constructibleIT_EE5valuesr18is_move_assignableIS9_EE5valueEvE4typeERS9_SC_, symObjAddr: 0x14F60, symBinAddr: 0x10002B460, symSize: 0x170 }
  - { offsetInCU: 0x5FB8, offset: 0x1609B, size: 0x8, addend: 0x0, symName: __ZNSt3__122__make_exception_guardB8ne180100INS_29_AllocatorDestroyRangeReverseINS_9allocatorINS_12basic_stringIcNS_11char_traitsIcEENS2_IcEEEEEENS_16reverse_iteratorIPS7_EEEEEENS_28__exception_guard_exceptionsIT_EESE_, symObjAddr: 0x150D0, symBinAddr: 0x10002B5D0, symSize: 0x2D0 }
  - { offsetInCU: 0x5FF1, offset: 0x160D4, size: 0x8, addend: 0x0, symName: __ZNSt3__119__allocator_destroyB8ne180100INS_9allocatorINS_12basic_stringIcNS_11char_traitsIcEENS1_IcEEEEEENS_16reverse_iteratorINS8_IPS6_EEEESB_EEvRT_T0_T1_, symObjAddr: 0x161E0, symBinAddr: 0x10002C6E0, symSize: 0x300 }
  - { offsetInCU: 0x605D, offset: 0x16140, size: 0x8, addend: 0x0, symName: __ZNSt3__1neB8ne180100INS_16reverse_iteratorIPNS_12basic_stringIcNS_11char_traitsIcEENS_9allocatorIcEEEEEES9_EEbRKNS1_IT_EERKNS1_IT0_EE, symObjAddr: 0x16740, symBinAddr: 0x10002CC40, symSize: 0x310 }
  - { offsetInCU: 0x60AB, offset: 0x1618E, size: 0x8, addend: 0x0, symName: __ZNSt3__112__to_addressB8ne180100INS_16reverse_iteratorINS1_IPNS_12basic_stringIcNS_11char_traitsIcEENS_9allocatorIcEEEEEEEEvEEu7__decayIDTclsr19__to_address_helperIT_EE6__callclsr3stdE7declvalIRKSB_EEEEESD_, symObjAddr: 0x16A50, symBinAddr: 0x10002CF50, symSize: 0x60 }
  - { offsetInCU: 0x610B, offset: 0x161EE, size: 0x8, addend: 0x0, symName: __ZNSt3__120__throw_out_of_rangeB8ne180100EPKc, symObjAddr: 0x17A10, symBinAddr: 0x10002DF10, symSize: 0xB0 }
  - { offsetInCU: 0x6133, offset: 0x16216, size: 0x8, addend: 0x0, symName: __ZNSt3__1miB8ne180100IPKNS_12basic_stringIcNS_11char_traitsIcEENS_9allocatorIcEEEES8_EEDTmicldtfp_4baseEcldtfp0_4baseEERKNS_11__wrap_iterIT_EERKNSA_IT0_EE, symObjAddr: 0x17E90, symBinAddr: 0x10002E0F0, symSize: 0xA0 }
  - { offsetInCU: 0x617F, offset: 0x16262, size: 0x8, addend: 0x0, symName: __ZNSt3__14moveB8ne180100IPNS_12basic_stringIcNS_11char_traitsIcEENS_9allocatorIcEEEES7_EET0_T_S9_S8_, symObjAddr: 0x18110, symBinAddr: 0x10002E370, symSize: 0x250 }
  - { offsetInCU: 0x61DC, offset: 0x162BF, size: 0x8, addend: 0x0, symName: __ZNSt3__16__moveB8ne180100INS_17_ClassicAlgPolicyEPNS_12basic_stringIcNS_11char_traitsIcEENS_9allocatorIcEEEES8_S8_EENS_4pairIT0_T2_EESA_T1_SB_, symObjAddr: 0x18890, symBinAddr: 0x10002EAF0, symSize: 0x220 }
  - { offsetInCU: 0x624B, offset: 0x1632E, size: 0x8, addend: 0x0, symName: __ZNSt3__123__dispatch_copy_or_moveB8ne180100INS_17_ClassicAlgPolicyENS_11__move_loopIS1_EENS_14__move_trivialEPNS_12basic_stringIcNS_11char_traitsIcEENS_9allocatorIcEEEESB_SB_EENS_4pairIT2_T4_EESD_T3_SE_, symObjAddr: 0x18AB0, symBinAddr: 0x10002ED10, symSize: 0x220 }
  - { offsetInCU: 0x62CC, offset: 0x163AF, size: 0x8, addend: 0x0, symName: __ZNSt3__121__unwrap_and_dispatchB8ne180100INS_10__overloadINS_11__move_loopINS_17_ClassicAlgPolicyEEENS_14__move_trivialEEEPNS_12basic_stringIcNS_11char_traitsIcEENS_9allocatorIcEEEESD_SD_Li0EEENS_4pairIT0_T2_EESF_T1_SG_, symObjAddr: 0x18CD0, symBinAddr: 0x10002EF30, symSize: 0x6C0 }
  - { offsetInCU: 0x643C, offset: 0x1651F, size: 0x8, addend: 0x0, symName: __ZNSt3__1miB8ne180100IPKNS_12basic_stringIcNS_11char_traitsIcEENS_9allocatorIcEEEEPS6_EEDTmicldtfp_4baseEcldtfp0_4baseEERKNS_11__wrap_iterIT_EERKNSB_IT0_EE, symObjAddr: 0x19A20, symBinAddr: 0x10002FC80, symSize: 0xA0 }
  - { offsetInCU: 0x6488, offset: 0x1656B, size: 0x8, addend: 0x0, symName: __ZNSt3__113move_backwardB8ne180100IPNS_12basic_stringIcNS_11char_traitsIcEENS_9allocatorIcEEEES7_EET0_T_S9_S8_, symObjAddr: 0x1BCD0, symBinAddr: 0x100031F30, symSize: 0x250 }
  - { offsetInCU: 0x64E5, offset: 0x165C8, size: 0x8, addend: 0x0, symName: __ZNSt3__115__move_backwardB8ne180100INS_17_ClassicAlgPolicyEPNS_12basic_stringIcNS_11char_traitsIcEENS_9allocatorIcEEEES8_S8_EENS_4pairIT0_T2_EESA_T1_SB_, symObjAddr: 0x1BF20, symBinAddr: 0x100032180, symSize: 0x220 }
  - { offsetInCU: 0x6554, offset: 0x16637, size: 0x8, addend: 0x0, symName: __ZNSt3__123__dispatch_copy_or_moveB8ne180100INS_17_ClassicAlgPolicyENS_20__move_backward_loopIS1_EENS_23__move_backward_trivialEPNS_12basic_stringIcNS_11char_traitsIcEENS_9allocatorIcEEEESB_SB_EENS_4pairIT2_T4_EESD_T3_SE_, symObjAddr: 0x1C140, symBinAddr: 0x1000323A0, symSize: 0x220 }
  - { offsetInCU: 0x65D5, offset: 0x166B8, size: 0x8, addend: 0x0, symName: __ZNSt3__121__unwrap_and_dispatchB8ne180100INS_10__overloadINS_20__move_backward_loopINS_17_ClassicAlgPolicyEEENS_23__move_backward_trivialEEEPNS_12basic_stringIcNS_11char_traitsIcEENS_9allocatorIcEEEESD_SD_Li0EEENS_4pairIT0_T2_EESF_T1_SG_, symObjAddr: 0x1C360, symBinAddr: 0x1000325C0, symSize: 0x6C0 }
  - { offsetInCU: 0x66C0, offset: 0x167A3, size: 0x8, addend: 0x0, symName: __ZNSt3__18distanceB8ne180100INS_13move_iteratorIPNS_12basic_stringIcNS_11char_traitsIcEENS_9allocatorIcEEEEEEEENS_15iterator_traitsIT_E15difference_typeESB_SB_, symObjAddr: 0x1D9E0, symBinAddr: 0x100033C40, symSize: 0x2C0 }
  - { offsetInCU: 0x670B, offset: 0x167EE, size: 0x8, addend: 0x0, symName: __ZNSt3__110__distanceB8ne180100INS_13move_iteratorIPNS_12basic_stringIcNS_11char_traitsIcEENS_9allocatorIcEEEEEEEENS_15iterator_traitsIT_E15difference_typeESB_SB_NS_26random_access_iterator_tagE, symObjAddr: 0x1E280, symBinAddr: 0x1000344E0, symSize: 0x1E0 }
  - { offsetInCU: 0x6762, offset: 0x16845, size: 0x8, addend: 0x0, symName: __ZNSt3__1miB8ne180100IPNS_12basic_stringIcNS_11char_traitsIcEENS_9allocatorIcEEEES7_EEDTmicldtfp_4baseEcldtfp0_4baseEERKNS_13move_iteratorIT_EERKNS9_IT0_EE, symObjAddr: 0x1E460, symBinAddr: 0x1000346C0, symSize: 0xA0 }
  - { offsetInCU: 0x67B1, offset: 0x16894, size: 0x8, addend: 0x0, symName: __ZNSt3__142__uninitialized_allocator_move_if_noexceptB8ne180100INS_9allocatorINS_12basic_stringIcNS_11char_traitsIcEENS1_IcEEEEEEPS6_S8_S8_EET2_RT_T0_T1_S9_, symObjAddr: 0x1E610, symBinAddr: 0x100034870, symSize: 0x730 }
  - { offsetInCU: 0x6D0B, offset: 0x16DEE, size: 0x8, addend: 0x0, symName: __ZNSt3__16vectorINS_12basic_stringIcNS_11char_traitsIcEENS_9allocatorIcEEEENS4_IS6_EEE26__swap_out_circular_bufferERNS_14__split_bufferIS6_RS7_EE, symObjAddr: 0x131F0, symBinAddr: 0x1000296F0, symSize: 0x910 }
  - { offsetInCU: 0x6DB7, offset: 0x16E9A, size: 0x8, addend: 0x0, symName: __ZNSt3__16vectorINS_12basic_stringIcNS_11char_traitsIcEENS_9allocatorIcEEEENS4_IS6_EEE26__swap_out_circular_bufferERNS_14__split_bufferIS6_RS7_EEPS6_, symObjAddr: 0x1B1D0, symBinAddr: 0x100031430, symSize: 0xB00 }
  - { offsetInCU: 0x8DE8, offset: 0x18ECB, size: 0x8, addend: 0x0, symName: __ZN7CommandC2ENSt3__112basic_stringIcNS0_11char_traitsIcEENS0_9allocatorIcEEEENS0_6vectorIS6_NS4_IS6_EEEE, symObjAddr: 0x0, symBinAddr: 0x100019DE0, symSize: 0x730 }
  - { offsetInCU: 0x8E35, offset: 0x18F18, size: 0x8, addend: 0x0, symName: __ZNSt3__16vectorINS_12basic_stringIcNS_11char_traitsIcEENS_9allocatorIcEEEENS4_IS6_EEEC1B8ne180100Ev, symObjAddr: 0x780, symBinAddr: 0x10001A510, symSize: 0x50 }
  - { offsetInCU: 0x8E5E, offset: 0x18F41, size: 0x8, addend: 0x0, symName: __ZN7Command4trimENSt3__112basic_stringIcNS0_11char_traitsIcEENS0_9allocatorIcEEEE, symObjAddr: 0x7D0, symBinAddr: 0x10001A560, symSize: 0x220 }
  - { offsetInCU: 0x8EB0, offset: 0x18F93, size: 0x8, addend: 0x0, symName: __ZNKSt3__112basic_stringIcNS_11char_traitsIcEENS_9allocatorIcEEE6substrB8ne180100Emm, symObjAddr: 0xBB0, symBinAddr: 0x10001A780, symSize: 0x230 }
  - { offsetInCU: 0x8EF6, offset: 0x18FD9, size: 0x8, addend: 0x0, symName: __ZN7Command9findInOutEv, symObjAddr: 0xEF0, symBinAddr: 0x10001A9B0, symSize: 0x1030 }
  - { offsetInCU: 0x8F75, offset: 0x19058, size: 0x8, addend: 0x0, symName: __ZNSt3__16vectorINS_12basic_stringIcNS_11char_traitsIcEENS_9allocatorIcEEEENS4_IS6_EEEaSB8ne180100ERKS8_, symObjAddr: 0x1F20, symBinAddr: 0x10001B9E0, symSize: 0x190 }
  - { offsetInCU: 0x8FAB, offset: 0x1908E, size: 0x8, addend: 0x0, symName: __ZN7Command9parseArgsEv, symObjAddr: 0x20B0, symBinAddr: 0x10001BB70, symSize: 0x1410 }
  - { offsetInCU: 0x9015, offset: 0x190F8, size: 0x8, addend: 0x0, symName: __ZNSt3__16vectorINS_12basic_stringIcNS_11char_traitsIcEENS_9allocatorIcEEEENS4_IS6_EEED1B8ne180100Ev, symObjAddr: 0x34C0, symBinAddr: 0x10001CF80, symSize: 0x50 }
  - { offsetInCU: 0x903D, offset: 0x19120, size: 0x8, addend: 0x0, symName: __ZN7CommandC1ENSt3__112basic_stringIcNS0_11char_traitsIcEENS0_9allocatorIcEEEENS0_6vectorIS6_NS4_IS6_EEEE, symObjAddr: 0x3510, symBinAddr: 0x10001CFD0, symSize: 0x70 }
  - { offsetInCU: 0x9087, offset: 0x1916A, size: 0x8, addend: 0x0, symName: __ZN7Command8hasInputEv, symObjAddr: 0x3580, symBinAddr: 0x10001D040, symSize: 0xA0 }
  - { offsetInCU: 0x90AE, offset: 0x19191, size: 0x8, addend: 0x0, symName: __ZN7Command9hasOutputEv, symObjAddr: 0x3690, symBinAddr: 0x10001D150, symSize: 0xA0 }
  - { offsetInCU: 0x90D5, offset: 0x191B8, size: 0x8, addend: 0x0, symName: __ZN7Command12isBackgroundEv, symObjAddr: 0x3730, symBinAddr: 0x10001D1F0, symSize: 0xC0 }
  - { offsetInCU: 0x90FB, offset: 0x191DE, size: 0x8, addend: 0x0, symName: __ZNKSt3__112basic_stringIcNS_11char_traitsIcEENS_9allocatorIcEEE17find_first_not_ofB8ne180100EPKcm, symObjAddr: 0x37F0, symBinAddr: 0x10001D2B0, symSize: 0xA0 }
  - { offsetInCU: 0x913F, offset: 0x19222, size: 0x8, addend: 0x0, symName: __ZNKSt3__112basic_stringIcNS_11char_traitsIcEENS_9allocatorIcEEE16find_last_not_ofB8ne180100EPKcm, symObjAddr: 0x3890, symBinAddr: 0x10001D350, symSize: 0xA0 }
  - { offsetInCU: 0x9183, offset: 0x19266, size: 0x8, addend: 0x0, symName: __ZNKSt3__112basic_stringIcNS_11char_traitsIcEENS_9allocatorIcEEE4findB8ne180100EPKcm, symObjAddr: 0x3930, symBinAddr: 0x10001D3F0, symSize: 0xA0 }
  - { offsetInCU: 0x91C7, offset: 0x192AA, size: 0x8, addend: 0x0, symName: __ZNKSt3__112basic_stringIcNS_11char_traitsIcEENS_9allocatorIcEEE13find_first_ofB8ne180100EPKcm, symObjAddr: 0x39D0, symBinAddr: 0x10001D490, symSize: 0xA0 }
  - { offsetInCU: 0x9210, offset: 0x192F3, size: 0x8, addend: 0x0, symName: __ZNKSt3__112basic_stringIcNS_11char_traitsIcEENS_9allocatorIcEEE4findB8ne180100ERKS5_m, symObjAddr: 0x3BE0, symBinAddr: 0x10001D640, symSize: 0xF0 }
  - { offsetInCU: 0x9254, offset: 0x19337, size: 0x8, addend: 0x0, symName: __ZNSt3__16vectorINS_12basic_stringIcNS_11char_traitsIcEENS_9allocatorIcEEEENS4_IS6_EEE9push_backB8ne180100EOS6_, symObjAddr: 0x3CD0, symBinAddr: 0x10001D730, symSize: 0x230 }
  - { offsetInCU: 0x9298, offset: 0x1937B, size: 0x8, addend: 0x0, symName: __ZNSt3__16vectorINS_12basic_stringIcNS_11char_traitsIcEENS_9allocatorIcEEEENS4_IS6_EEE8pop_backEv, symObjAddr: 0x3F00, symBinAddr: 0x10001D960, symSize: 0xE0 }
  - { offsetInCU: 0x92BE, offset: 0x193A1, size: 0x8, addend: 0x0, symName: __ZNSt3__16vectorINS_12basic_stringIcNS_11char_traitsIcEENS_9allocatorIcEEEENS4_IS6_EEE2atEm, symObjAddr: 0x3FE0, symBinAddr: 0x10001DA40, symSize: 0x160 }
  - { offsetInCU: 0x92F3, offset: 0x193D6, size: 0x8, addend: 0x0, symName: __ZNSt3__16vectorINS_12basic_stringIcNS_11char_traitsIcEENS_9allocatorIcEEEENS4_IS6_EEE5eraseB8ne180100ENS_11__wrap_iterIPKS6_EE, symObjAddr: 0x4260, symBinAddr: 0x10001DBA0, symSize: 0x480 }
  - { offsetInCU: 0x934E, offset: 0x19431, size: 0x8, addend: 0x0, symName: __ZNKSt3__111__wrap_iterIPNS_12basic_stringIcNS_11char_traitsIcEENS_9allocatorIcEEEEEplB8ne180100El, symObjAddr: 0x48F0, symBinAddr: 0x10001E020, symSize: 0x1C0 }
  - { offsetInCU: 0x939A, offset: 0x1947D, size: 0x8, addend: 0x0, symName: __ZNSt3__111__wrap_iterIPKNS_12basic_stringIcNS_11char_traitsIcEENS_9allocatorIcEEEEEC1B8ne180100IPS6_Li0EEERKNS0_IT_EE, symObjAddr: 0x4AB0, symBinAddr: 0x10001E1E0, symSize: 0x60 }
  - { offsetInCU: 0x93DF, offset: 0x194C2, size: 0x8, addend: 0x0, symName: __ZNSt3__16vectorINS_12basic_stringIcNS_11char_traitsIcEENS_9allocatorIcEEEENS4_IS6_EEE6insertENS_11__wrap_iterIPKS6_EEOS6_, symObjAddr: 0x4B10, symBinAddr: 0x10001E240, symSize: 0x9E0 }
  - { offsetInCU: 0x9464, offset: 0x19547, size: 0x8, addend: 0x0, symName: __ZNSt3__111__wrap_iterIPNS_12basic_stringIcNS_11char_traitsIcEENS_9allocatorIcEEEEEpLB8ne180100El, symObjAddr: 0x54F0, symBinAddr: 0x10001EC20, symSize: 0x160 }
  - { offsetInCU: 0x9497, offset: 0x1957A, size: 0x8, addend: 0x0, symName: __ZNSt3__111__wrap_iterIPKNS_12basic_stringIcNS_11char_traitsIcEENS_9allocatorIcEEEEEC2B8ne180100IPS6_Li0EEERKNS0_IT_EE, symObjAddr: 0x5650, symBinAddr: 0x10001ED80, symSize: 0xC0 }
  - { offsetInCU: 0x94DD, offset: 0x195C0, size: 0x8, addend: 0x0, symName: __ZNSt3__16vectorINS_12basic_stringIcNS_11char_traitsIcEENS_9allocatorIcEEEENS4_IS6_EEED2B8ne180100Ev, symObjAddr: 0x5790, symBinAddr: 0x10001EE40, symSize: 0x1E0 }
  - { offsetInCU: 0x9507, offset: 0x195EA, size: 0x8, addend: 0x0, symName: __ZNSt3__16vectorINS_12basic_stringIcNS_11char_traitsIcEENS_9allocatorIcEEEENS4_IS6_EEE16__destroy_vectorC1B8ne180100ERS8_, symObjAddr: 0x5970, symBinAddr: 0x10001F020, symSize: 0x60 }
  - { offsetInCU: 0x953F, offset: 0x19622, size: 0x8, addend: 0x0, symName: __ZNSt3__16vectorINS_12basic_stringIcNS_11char_traitsIcEENS_9allocatorIcEEEENS4_IS6_EEE16__destroy_vectorclB8ne180100Ev, symObjAddr: 0x59E0, symBinAddr: 0x10001F080, symSize: 0x350 }
  - { offsetInCU: 0x9564, offset: 0x19647, size: 0x8, addend: 0x0, symName: __ZNSt3__16vectorINS_12basic_stringIcNS_11char_traitsIcEENS_9allocatorIcEEEENS4_IS6_EEE16__destroy_vectorC2B8ne180100ERS8_, symObjAddr: 0x5D30, symBinAddr: 0x10001F3D0, symSize: 0xC0 }
  - { offsetInCU: 0x959C, offset: 0x1967F, size: 0x8, addend: 0x0, symName: __ZNSt3__16vectorINS_12basic_stringIcNS_11char_traitsIcEENS_9allocatorIcEEEENS4_IS6_EEE7__clearB8ne180100Ev, symObjAddr: 0x5DF0, symBinAddr: 0x10001F490, symSize: 0x80 }
  - { offsetInCU: 0x95C1, offset: 0x196A4, size: 0x8, addend: 0x0, symName: __ZNKSt3__16vectorINS_12basic_stringIcNS_11char_traitsIcEENS_9allocatorIcEEEENS4_IS6_EEE17__annotate_deleteB8ne180100Ev, symObjAddr: 0x5E70, symBinAddr: 0x10001F510, symSize: 0x160 }
  - { offsetInCU: 0x95E6, offset: 0x196C9, size: 0x8, addend: 0x0, symName: __ZNSt3__116allocator_traitsINS_9allocatorINS_12basic_stringIcNS_11char_traitsIcEENS1_IcEEEEEEE10deallocateB8ne180100ERS7_PS6_m, symObjAddr: 0x5FD0, symBinAddr: 0x10001F670, symSize: 0x40 }
  - { offsetInCU: 0x9628, offset: 0x1970B, size: 0x8, addend: 0x0, symName: __ZNSt3__16vectorINS_12basic_stringIcNS_11char_traitsIcEENS_9allocatorIcEEEENS4_IS6_EEE7__allocB8ne180100Ev, symObjAddr: 0x6010, symBinAddr: 0x10001F6B0, symSize: 0xB0 }
  - { offsetInCU: 0x964D, offset: 0x19730, size: 0x8, addend: 0x0, symName: __ZNKSt3__16vectorINS_12basic_stringIcNS_11char_traitsIcEENS_9allocatorIcEEEENS4_IS6_EEE8capacityB8ne180100Ev, symObjAddr: 0x60C0, symBinAddr: 0x10001F760, symSize: 0x100 }
  - { offsetInCU: 0x9672, offset: 0x19755, size: 0x8, addend: 0x0, symName: __ZNSt3__16vectorINS_12basic_stringIcNS_11char_traitsIcEENS_9allocatorIcEEEENS4_IS6_EEE22__base_destruct_at_endB8ne180100EPS6_, symObjAddr: 0x61C0, symBinAddr: 0x10001F860, symSize: 0x190 }
  - { offsetInCU: 0x96B5, offset: 0x19798, size: 0x8, addend: 0x0, symName: __ZNSt3__116allocator_traitsINS_9allocatorINS_12basic_stringIcNS_11char_traitsIcEENS1_IcEEEEEEE7destroyB8ne180100IS6_vEEvRS7_PT_, symObjAddr: 0x6350, symBinAddr: 0x10001F9F0, symSize: 0x30 }
  - { offsetInCU: 0x96F2, offset: 0x197D5, size: 0x8, addend: 0x0, symName: __ZNSt3__19allocatorINS_12basic_stringIcNS_11char_traitsIcEENS0_IcEEEEE7destroyB8ne180100EPS5_, symObjAddr: 0x63A0, symBinAddr: 0x10001FA40, symSize: 0x80 }
  - { offsetInCU: 0x9725, offset: 0x19808, size: 0x8, addend: 0x0, symName: __ZNKSt3__16vectorINS_12basic_stringIcNS_11char_traitsIcEENS_9allocatorIcEEEENS4_IS6_EEE31__annotate_contiguous_containerB8ne180100EPKvSA_, symObjAddr: 0x6420, symBinAddr: 0x10001FAC0, symSize: 0x100 }
  - { offsetInCU: 0x9786, offset: 0x19869, size: 0x8, addend: 0x0, symName: __ZNKSt3__16vectorINS_12basic_stringIcNS_11char_traitsIcEENS_9allocatorIcEEEENS4_IS6_EEE4dataB8ne180100Ev, symObjAddr: 0x6520, symBinAddr: 0x10001FBC0, symSize: 0x80 }
  - { offsetInCU: 0x97AB, offset: 0x1988E, size: 0x8, addend: 0x0, symName: __ZNSt3__19allocatorINS_12basic_stringIcNS_11char_traitsIcEENS0_IcEEEEE10deallocateB8ne180100EPS5_m, symObjAddr: 0x65A0, symBinAddr: 0x10001FC40, symSize: 0x70 }
  - { offsetInCU: 0x97EC, offset: 0x198CF, size: 0x8, addend: 0x0, symName: __ZNSt3__117__compressed_pairIPNS_12basic_stringIcNS_11char_traitsIcEENS_9allocatorIcEEEENS4_IS6_EEE6secondB8ne180100Ev, symObjAddr: 0x6760, symBinAddr: 0x10001FCB0, symSize: 0xD0 }
  - { offsetInCU: 0x9811, offset: 0x198F4, size: 0x8, addend: 0x0, symName: __ZNSt3__122__compressed_pair_elemINS_9allocatorINS_12basic_stringIcNS_11char_traitsIcEENS1_IcEEEEEELi1ELb1EE5__getB8ne180100Ev, symObjAddr: 0x6830, symBinAddr: 0x10001FD80, symSize: 0x60 }
  - { offsetInCU: 0x9836, offset: 0x19919, size: 0x8, addend: 0x0, symName: __ZNKSt3__16vectorINS_12basic_stringIcNS_11char_traitsIcEENS_9allocatorIcEEEENS4_IS6_EEE9__end_capB8ne180100Ev, symObjAddr: 0x6890, symBinAddr: 0x10001FDE0, symSize: 0xC0 }
  - { offsetInCU: 0x985B, offset: 0x1993E, size: 0x8, addend: 0x0, symName: __ZNKSt3__117__compressed_pairIPNS_12basic_stringIcNS_11char_traitsIcEENS_9allocatorIcEEEENS4_IS6_EEE5firstB8ne180100Ev, symObjAddr: 0x6950, symBinAddr: 0x10001FEA0, symSize: 0xE0 }
  - { offsetInCU: 0x9880, offset: 0x19963, size: 0x8, addend: 0x0, symName: __ZNKSt3__122__compressed_pair_elemIPNS_12basic_stringIcNS_11char_traitsIcEENS_9allocatorIcEEEELi0ELb0EE5__getB8ne180100Ev, symObjAddr: 0x6A30, symBinAddr: 0x10001FF80, symSize: 0x80 }
  - { offsetInCU: 0x98AA, offset: 0x1998D, size: 0x8, addend: 0x0, symName: __ZNSt3__16vectorINS_12basic_stringIcNS_11char_traitsIcEENS_9allocatorIcEEEENS4_IS6_EEEC2B8ne180100Ev, symObjAddr: 0x6F30, symBinAddr: 0x100020000, symSize: 0x280 }
  - { offsetInCU: 0x98D9, offset: 0x199BC, size: 0x8, addend: 0x0, symName: __ZNSt3__117__compressed_pairIPNS_12basic_stringIcNS_11char_traitsIcEENS_9allocatorIcEEEENS4_IS6_EEEC1B8ne180100IDnNS_18__default_init_tagEEEOT_OT0_, symObjAddr: 0x71B0, symBinAddr: 0x100020280, symSize: 0x60 }
  - { offsetInCU: 0x9930, offset: 0x19A13, size: 0x8, addend: 0x0, symName: __ZNSt3__117__compressed_pairIPNS_12basic_stringIcNS_11char_traitsIcEENS_9allocatorIcEEEENS4_IS6_EEEC2B8ne180100IDnNS_18__default_init_tagEEEOT_OT0_, symObjAddr: 0x7210, symBinAddr: 0x1000202E0, symSize: 0xF0 }
  - { offsetInCU: 0x9987, offset: 0x19A6A, size: 0x8, addend: 0x0, symName: __ZNSt3__122__compressed_pair_elemIPNS_12basic_stringIcNS_11char_traitsIcEENS_9allocatorIcEEEELi0ELb0EEC2B8ne180100IDnvEEOT_, symObjAddr: 0x7300, symBinAddr: 0x1000203D0, symSize: 0x80 }
  - { offsetInCU: 0x99C8, offset: 0x19AAB, size: 0x8, addend: 0x0, symName: __ZNSt3__122__compressed_pair_elemINS_9allocatorINS_12basic_stringIcNS_11char_traitsIcEENS1_IcEEEEEELi1ELb1EEC2B8ne180100ENS_18__default_init_tagE, symObjAddr: 0x7380, symBinAddr: 0x100020450, symSize: 0x60 }
  - { offsetInCU: 0x99FC, offset: 0x19ADF, size: 0x8, addend: 0x0, symName: __ZNSt3__19allocatorINS_12basic_stringIcNS_11char_traitsIcEENS0_IcEEEEEC2B8ne180100Ev, symObjAddr: 0x73E0, symBinAddr: 0x1000204B0, symSize: 0x60 }
  - { offsetInCU: 0x9A25, offset: 0x19B08, size: 0x8, addend: 0x0, symName: __ZNSt3__116__non_trivial_ifILb1ENS_9allocatorINS_12basic_stringIcNS_11char_traitsIcEENS1_IcEEEEEEEC2B8ne180100Ev, symObjAddr: 0x7440, symBinAddr: 0x100020510, symSize: 0x40 }
  - { offsetInCU: 0x9A4E, offset: 0x19B31, size: 0x8, addend: 0x0, symName: __ZNSt3__19allocatorIcEC1B8ne180100Ev, symObjAddr: 0x8CB0, symBinAddr: 0x100020550, symSize: 0x40 }
  - { offsetInCU: 0x9A77, offset: 0x19B5A, size: 0x8, addend: 0x0, symName: __ZNSt3__16vectorINS_12basic_stringIcNS_11char_traitsIcEENS_9allocatorIcEEEENS4_IS6_EEE19__copy_assign_allocB8ne180100ERKS8_, symObjAddr: 0x8EF0, symBinAddr: 0x100020590, symSize: 0x90 }
  - { offsetInCU: 0x9AAA, offset: 0x19B8D, size: 0x8, addend: 0x0, symName: __ZNSt3__16vectorINS_12basic_stringIcNS_11char_traitsIcEENS_9allocatorIcEEEENS4_IS6_EEE6assignIPS6_Li0EEEvT_SB_, symObjAddr: 0x8F80, symBinAddr: 0x100020620, symSize: 0x80 }
  - { offsetInCU: 0x9AFE, offset: 0x19BE1, size: 0x8, addend: 0x0, symName: __ZNSt3__16vectorINS_12basic_stringIcNS_11char_traitsIcEENS_9allocatorIcEEEENS4_IS6_EEE19__copy_assign_allocB8ne180100ERKS8_NS_17integral_constantIbLb0EEE, symObjAddr: 0x9000, symBinAddr: 0x1000206A0, symSize: 0x50 }
  - { offsetInCU: 0x9B38, offset: 0x19C1B, size: 0x8, addend: 0x0, symName: __ZNSt3__16vectorINS_12basic_stringIcNS_11char_traitsIcEENS_9allocatorIcEEEENS4_IS6_EEE18__assign_with_sizeB8ne180100IPS6_SA_EEvT_T0_l, symObjAddr: 0x9050, symBinAddr: 0x1000206F0, symSize: 0x4D0 }
  - { offsetInCU: 0x9BED, offset: 0x19CD0, size: 0x8, addend: 0x0, symName: __ZNSt3__16vectorINS_12basic_stringIcNS_11char_traitsIcEENS_9allocatorIcEEEENS4_IS6_EEE18__construct_at_endIPS6_SA_EEvT_T0_m, symObjAddr: 0x9960, symBinAddr: 0x100021000, symSize: 0x3C0 }
  - { offsetInCU: 0x9C6A, offset: 0x19D4D, size: 0x8, addend: 0x0, symName: __ZNSt3__16vectorINS_12basic_stringIcNS_11char_traitsIcEENS_9allocatorIcEEEENS4_IS6_EEE17__destruct_at_endB8ne180100EPS6_, symObjAddr: 0x9F40, symBinAddr: 0x1000215E0, symSize: 0x80 }
  - { offsetInCU: 0x9CAC, offset: 0x19D8F, size: 0x8, addend: 0x0, symName: __ZNSt3__16vectorINS_12basic_stringIcNS_11char_traitsIcEENS_9allocatorIcEEEENS4_IS6_EEE13__vdeallocateEv, symObjAddr: 0x9FC0, symBinAddr: 0x100021660, symSize: 0x1E0 }
  - { offsetInCU: 0x9CD3, offset: 0x19DB6, size: 0x8, addend: 0x0, symName: __ZNSt3__16vectorINS_12basic_stringIcNS_11char_traitsIcEENS_9allocatorIcEEEENS4_IS6_EEE11__vallocateB8ne180100Em, symObjAddr: 0xA1A0, symBinAddr: 0x100021840, symSize: 0x520 }
  - { offsetInCU: 0x9D1B, offset: 0x19DFE, size: 0x8, addend: 0x0, symName: __ZNKSt3__16vectorINS_12basic_stringIcNS_11char_traitsIcEENS_9allocatorIcEEEENS4_IS6_EEE11__recommendB8ne180100Em, symObjAddr: 0xA6C0, symBinAddr: 0x100021D60, symSize: 0x390 }
  - { offsetInCU: 0x9D8F, offset: 0x19E72, size: 0x8, addend: 0x0, symName: __ZNSt3__16vectorINS_12basic_stringIcNS_11char_traitsIcEENS_9allocatorIcEEEENS4_IS6_EEE21_ConstructTransactionC1B8ne180100ERS8_m, symObjAddr: 0xABE0, symBinAddr: 0x100022280, symSize: 0x60 }
  - { offsetInCU: 0x9DD6, offset: 0x19EB9, size: 0x8, addend: 0x0, symName: __ZNSt3__16vectorINS_12basic_stringIcNS_11char_traitsIcEENS_9allocatorIcEEEENS4_IS6_EEE21_ConstructTransactionD1B8ne180100Ev, symObjAddr: 0xAF30, symBinAddr: 0x1000225D0, symSize: 0x50 }
  - { offsetInCU: 0x9DFF, offset: 0x19EE2, size: 0x8, addend: 0x0, symName: __ZNSt3__16vectorINS_12basic_stringIcNS_11char_traitsIcEENS_9allocatorIcEEEENS4_IS6_EEE21_ConstructTransactionC2B8ne180100ERS8_m, symObjAddr: 0xAF80, symBinAddr: 0x100022620, symSize: 0x2C0 }
  - { offsetInCU: 0x9E46, offset: 0x19F29, size: 0x8, addend: 0x0, symName: __ZNKSt3__16vectorINS_12basic_stringIcNS_11char_traitsIcEENS_9allocatorIcEEEENS4_IS6_EEE19__annotate_increaseB8ne180100Em, symObjAddr: 0xB240, symBinAddr: 0x1000228E0, symSize: 0x1C0 }
  - { offsetInCU: 0x9E98, offset: 0x19F7B, size: 0x8, addend: 0x0, symName: __ZNSt3__14pairIPNS_12basic_stringIcNS_11char_traitsIcEENS_9allocatorIcEEEES7_EC1B8ne180100IS7_S7_Li0EEEOT_OT0_, symObjAddr: 0xC0C0, symBinAddr: 0x100023760, symSize: 0x60 }
  - { offsetInCU: 0x9EF5, offset: 0x19FD8, size: 0x8, addend: 0x0, symName: __ZNSt3__14pairIPNS_12basic_stringIcNS_11char_traitsIcEENS_9allocatorIcEEEES7_EC2B8ne180100IS7_S7_Li0EEEOT_OT0_, symObjAddr: 0xC120, symBinAddr: 0x1000237C0, symSize: 0x190 }
  - { offsetInCU: 0x9F52, offset: 0x1A035, size: 0x8, addend: 0x0, symName: __ZNSt3__129_AllocatorDestroyRangeReverseINS_9allocatorINS_12basic_stringIcNS_11char_traitsIcEENS1_IcEEEEEEPS6_EC1B8ne180100ERS7_RS8_SB_, symObjAddr: 0xC580, symBinAddr: 0x100023C20, symSize: 0x70 }
  - { offsetInCU: 0x9FA8, offset: 0x1A08B, size: 0x8, addend: 0x0, symName: __ZNSt3__116allocator_traitsINS_9allocatorINS_12basic_stringIcNS_11char_traitsIcEENS1_IcEEEEEEE9constructB8ne180100IS6_JRS6_EvEEvRS7_PT_DpOT0_, symObjAddr: 0xC5F0, symBinAddr: 0x100023C90, symSize: 0x80 }
  - { offsetInCU: 0x9FFF, offset: 0x1A0E2, size: 0x8, addend: 0x0, symName: __ZNSt3__128__exception_guard_exceptionsINS_29_AllocatorDestroyRangeReverseINS_9allocatorINS_12basic_stringIcNS_11char_traitsIcEENS2_IcEEEEEEPS7_EEE10__completeB8ne180100Ev, symObjAddr: 0xC670, symBinAddr: 0x100023D10, symSize: 0xA0 }
  - { offsetInCU: 0xA024, offset: 0x1A107, size: 0x8, addend: 0x0, symName: __ZNSt3__128__exception_guard_exceptionsINS_29_AllocatorDestroyRangeReverseINS_9allocatorINS_12basic_stringIcNS_11char_traitsIcEENS2_IcEEEEEEPS7_EEED1B8ne180100Ev, symObjAddr: 0xC710, symBinAddr: 0x100023DB0, symSize: 0x50 }
  - { offsetInCU: 0xA04D, offset: 0x1A130, size: 0x8, addend: 0x0, symName: __ZNSt3__128__exception_guard_exceptionsINS_29_AllocatorDestroyRangeReverseINS_9allocatorINS_12basic_stringIcNS_11char_traitsIcEENS2_IcEEEEEEPS7_EEEC1B8ne180100ESA_, symObjAddr: 0xC760, symBinAddr: 0x100023E00, symSize: 0x280 }
  - { offsetInCU: 0xA089, offset: 0x1A16C, size: 0x8, addend: 0x0, symName: __ZNSt3__128__exception_guard_exceptionsINS_29_AllocatorDestroyRangeReverseINS_9allocatorINS_12basic_stringIcNS_11char_traitsIcEENS2_IcEEEEEEPS7_EEEC2B8ne180100ESA_, symObjAddr: 0xC9E0, symBinAddr: 0x100024080, symSize: 0x220 }
  - { offsetInCU: 0xA0C5, offset: 0x1A1A8, size: 0x8, addend: 0x0, symName: __ZNSt3__129_AllocatorDestroyRangeReverseINS_9allocatorINS_12basic_stringIcNS_11char_traitsIcEENS1_IcEEEEEEPS6_EC2B8ne180100ERS7_RS8_SB_, symObjAddr: 0xCC00, symBinAddr: 0x1000242A0, symSize: 0x190 }
  - { offsetInCU: 0xA11B, offset: 0x1A1FE, size: 0x8, addend: 0x0, symName: __ZNSt3__19allocatorINS_12basic_stringIcNS_11char_traitsIcEENS0_IcEEEEE9constructB8ne180100IS5_JRS5_EEEvPT_DpOT0_, symObjAddr: 0xCD90, symBinAddr: 0x100024430, symSize: 0xC0 }
  - { offsetInCU: 0xA170, offset: 0x1A253, size: 0x8, addend: 0x0, symName: __ZNSt3__128__exception_guard_exceptionsINS_29_AllocatorDestroyRangeReverseINS_9allocatorINS_12basic_stringIcNS_11char_traitsIcEENS2_IcEEEEEEPS7_EEED2B8ne180100Ev, symObjAddr: 0xCE50, symBinAddr: 0x1000244F0, symSize: 0x120 }
  - { offsetInCU: 0xA199, offset: 0x1A27C, size: 0x8, addend: 0x0, symName: __ZNKSt3__129_AllocatorDestroyRangeReverseINS_9allocatorINS_12basic_stringIcNS_11char_traitsIcEENS1_IcEEEEEEPS6_EclB8ne180100Ev, symObjAddr: 0xCF70, symBinAddr: 0x100024610, symSize: 0x3D0 }
  - { offsetInCU: 0xA1BF, offset: 0x1A2A2, size: 0x8, addend: 0x0, symName: __ZNSt3__116reverse_iteratorIPNS_12basic_stringIcNS_11char_traitsIcEENS_9allocatorIcEEEEEC1B8ne180100ES7_, symObjAddr: 0xD610, symBinAddr: 0x100024CB0, symSize: 0x60 }
  - { offsetInCU: 0xA1F6, offset: 0x1A2D9, size: 0x8, addend: 0x0, symName: __ZNSt3__116reverse_iteratorIPNS_12basic_stringIcNS_11char_traitsIcEENS_9allocatorIcEEEEEppB8ne180100Ev, symObjAddr: 0xD770, symBinAddr: 0x100024E10, symSize: 0x130 }
  - { offsetInCU: 0xA21B, offset: 0x1A2FE, size: 0x8, addend: 0x0, symName: __ZNKSt3__116reverse_iteratorIPNS_12basic_stringIcNS_11char_traitsIcEENS_9allocatorIcEEEEE4baseB8ne180100Ev, symObjAddr: 0xD8A0, symBinAddr: 0x100024F40, symSize: 0x80 }
  - { offsetInCU: 0xA245, offset: 0x1A328, size: 0x8, addend: 0x0, symName: __ZNSt3__119__to_address_helperINS_16reverse_iteratorIPNS_12basic_stringIcNS_11char_traitsIcEENS_9allocatorIcEEEEEEvE6__callB8ne180100ERKS9_, symObjAddr: 0xD920, symBinAddr: 0x100024FC0, symSize: 0x70 }
  - { offsetInCU: 0xA268, offset: 0x1A34B, size: 0x8, addend: 0x0, symName: __ZNKSt3__116reverse_iteratorIPNS_12basic_stringIcNS_11char_traitsIcEENS_9allocatorIcEEEEEptB8ne180100Ev, symObjAddr: 0xD990, symBinAddr: 0x100025030, symSize: 0x50 }
  - { offsetInCU: 0xA28D, offset: 0x1A370, size: 0x8, addend: 0x0, symName: __ZNKSt3__116reverse_iteratorIPNS_12basic_stringIcNS_11char_traitsIcEENS_9allocatorIcEEEEEdeB8ne180100Ev, symObjAddr: 0xD9E0, symBinAddr: 0x100025080, symSize: 0x110 }
  - { offsetInCU: 0xA2C0, offset: 0x1A3A3, size: 0x8, addend: 0x0, symName: __ZNSt3__116reverse_iteratorIPNS_12basic_stringIcNS_11char_traitsIcEENS_9allocatorIcEEEEEC2B8ne180100ES7_, symObjAddr: 0xDAF0, symBinAddr: 0x100025190, symSize: 0xD0 }
  - { offsetInCU: 0xA2F7, offset: 0x1A3DA, size: 0x8, addend: 0x0, symName: __ZNSt3__118__unwrap_iter_implIPNS_12basic_stringIcNS_11char_traitsIcEENS_9allocatorIcEEEELb1EE8__unwrapB8ne180100ES7_, symObjAddr: 0xDBC0, symBinAddr: 0x100025260, symSize: 0x30 }
  - { offsetInCU: 0xA31A, offset: 0x1A3FD, size: 0x8, addend: 0x0, symName: __ZNSt3__118__unwrap_iter_implIPNS_12basic_stringIcNS_11char_traitsIcEENS_9allocatorIcEEEELb1EE8__rewrapB8ne180100ES7_S7_, symObjAddr: 0xDBF0, symBinAddr: 0x100025290, symSize: 0xC0 }
  - { offsetInCU: 0xA34B, offset: 0x1A42E, size: 0x8, addend: 0x0, symName: __ZNSt3__16vectorINS_12basic_stringIcNS_11char_traitsIcEENS_9allocatorIcEEEENS4_IS6_EEE21_ConstructTransactionD2B8ne180100Ev, symObjAddr: 0xDCB0, symBinAddr: 0x100025350, symSize: 0x2F0 }
  - { offsetInCU: 0xA374, offset: 0x1A457, size: 0x8, addend: 0x0, symName: __ZNKSt3__16vectorINS_12basic_stringIcNS_11char_traitsIcEENS_9allocatorIcEEEENS4_IS6_EEE17__annotate_shrinkB8ne180100Em, symObjAddr: 0xDFA0, symBinAddr: 0x100025640, symSize: 0x150 }
  - { offsetInCU: 0xA3B2, offset: 0x1A495, size: 0x8, addend: 0x0, symName: __ZNKSt3__111__copy_loopINS_17_ClassicAlgPolicyEEclB8ne180100IPNS_12basic_stringIcNS_11char_traitsIcEENS_9allocatorIcEEEESA_SA_EENS_4pairIT_T1_EESC_T0_SD_, symObjAddr: 0xE9D0, symBinAddr: 0x100026070, symSize: 0x5F0 }
  - { offsetInCU: 0xA426, offset: 0x1A509, size: 0x8, addend: 0x0, symName: __ZNSt3__16vectorINS_12basic_stringIcNS_11char_traitsIcEENS_9allocatorIcEEEENS4_IS6_EEE5clearB8ne180100Ev, symObjAddr: 0xEFF0, symBinAddr: 0x100026690, symSize: 0x70 }
  - { offsetInCU: 0xA45A, offset: 0x1A53D, size: 0x8, addend: 0x0, symName: __ZNSt3__16vectorINS_12basic_stringIcNS_11char_traitsIcEENS_9allocatorIcEEEENS4_IS6_EEE9__end_capB8ne180100Ev, symObjAddr: 0xF060, symBinAddr: 0x100026700, symSize: 0xC0 }
  - { offsetInCU: 0xA47F, offset: 0x1A562, size: 0x8, addend: 0x0, symName: __ZNSt3__117__compressed_pairIPNS_12basic_stringIcNS_11char_traitsIcEENS_9allocatorIcEEEENS4_IS6_EEE5firstB8ne180100Ev, symObjAddr: 0xF120, symBinAddr: 0x1000267C0, symSize: 0xE0 }
  - { offsetInCU: 0xA4A4, offset: 0x1A587, size: 0x8, addend: 0x0, symName: __ZNSt3__122__compressed_pair_elemIPNS_12basic_stringIcNS_11char_traitsIcEENS_9allocatorIcEEEELi0ELb0EE5__getB8ne180100Ev, symObjAddr: 0xF200, symBinAddr: 0x1000268A0, symSize: 0x80 }
  - { offsetInCU: 0xA4C8, offset: 0x1A5AB, size: 0x8, addend: 0x0, symName: __ZNKSt3__16vectorINS_12basic_stringIcNS_11char_traitsIcEENS_9allocatorIcEEEENS4_IS6_EEE8max_sizeEv, symObjAddr: 0xF280, symBinAddr: 0x100026920, symSize: 0x2F0 }
  - { offsetInCU: 0xA4F0, offset: 0x1A5D3, size: 0x8, addend: 0x0, symName: __ZNKSt3__16vectorINS_12basic_stringIcNS_11char_traitsIcEENS_9allocatorIcEEEENS4_IS6_EEE20__throw_length_errorB8ne180100Ev, symObjAddr: 0xF570, symBinAddr: 0x100026C10, symSize: 0x70 }
  - { offsetInCU: 0xA515, offset: 0x1A5F8, size: 0x8, addend: 0x0, symName: __ZNKSt3__16vectorINS_12basic_stringIcNS_11char_traitsIcEENS_9allocatorIcEEEENS4_IS6_EEE14__annotate_newB8ne180100Em, symObjAddr: 0xF7F0, symBinAddr: 0x100026E90, symSize: 0x150 }
  - { offsetInCU: 0xA553, offset: 0x1A636, size: 0x8, addend: 0x0, symName: __ZNSt3__116allocator_traitsINS_9allocatorINS_12basic_stringIcNS_11char_traitsIcEENS1_IcEEEEEEE8max_sizeB8ne180100IS7_vEEmRKS7_, symObjAddr: 0xFA10, symBinAddr: 0x100026FE0, symSize: 0x30 }
  - { offsetInCU: 0xA581, offset: 0x1A664, size: 0x8, addend: 0x0, symName: __ZNKSt3__16vectorINS_12basic_stringIcNS_11char_traitsIcEENS_9allocatorIcEEEENS4_IS6_EEE7__allocB8ne180100Ev, symObjAddr: 0xFA40, symBinAddr: 0x100027010, symSize: 0xB0 }
  - { offsetInCU: 0xA5A6, offset: 0x1A689, size: 0x8, addend: 0x0, symName: __ZNKSt3__19allocatorINS_12basic_stringIcNS_11char_traitsIcEENS0_IcEEEEE8max_sizeB8ne180100Ev, symObjAddr: 0xFDF0, symBinAddr: 0x1000270C0, symSize: 0x40 }
  - { offsetInCU: 0xA5CB, offset: 0x1A6AE, size: 0x8, addend: 0x0, symName: __ZNKSt3__117__compressed_pairIPNS_12basic_stringIcNS_11char_traitsIcEENS_9allocatorIcEEEENS4_IS6_EEE6secondB8ne180100Ev, symObjAddr: 0xFE30, symBinAddr: 0x100027100, symSize: 0xD0 }
  - { offsetInCU: 0xA5F0, offset: 0x1A6D3, size: 0x8, addend: 0x0, symName: __ZNKSt3__122__compressed_pair_elemINS_9allocatorINS_12basic_stringIcNS_11char_traitsIcEENS1_IcEEEEEELi1ELb1EE5__getB8ne180100Ev, symObjAddr: 0xFF00, symBinAddr: 0x1000271D0, symSize: 0x60 }
  - { offsetInCU: 0xA615, offset: 0x1A6F8, size: 0x8, addend: 0x0, symName: __ZNSt3__19allocatorINS_12basic_stringIcNS_11char_traitsIcEENS0_IcEEEEE8allocateB8ne180100Em, symObjAddr: 0x10160, symBinAddr: 0x100027230, symSize: 0xB0 }
  - { offsetInCU: 0xA648, offset: 0x1A72B, size: 0x8, addend: 0x0, symName: __ZNSt3__111char_traitsIcE4findB8ne180100EPKcmRS2_, symObjAddr: 0x10970, symBinAddr: 0x100027560, symSize: 0xD0 }
  - { offsetInCU: 0xA687, offset: 0x1A76A, size: 0x8, addend: 0x0, symName: __ZNSt3__111char_traitsIcE7compareB8ne180100EPKcS3_m, symObjAddr: 0x118B0, symBinAddr: 0x100028100, symSize: 0x40 }
  - { offsetInCU: 0xA6C6, offset: 0x1A7A9, size: 0x8, addend: 0x0, symName: __ZNSt3__112basic_stringIcNS_11char_traitsIcEENS_9allocatorIcEEE6appendB8ne180100ERKS5_, symObjAddr: 0x11E60, symBinAddr: 0x100028680, symSize: 0x100 }
  - { offsetInCU: 0xA6FA, offset: 0x1A7DD, size: 0x8, addend: 0x0, symName: __ZNSt3__112basic_stringIcNS_11char_traitsIcEENS_9allocatorIcEEEC1B8ne180100EOS5_, symObjAddr: 0x11F60, symBinAddr: 0x100028780, symSize: 0x60 }
  - { offsetInCU: 0xA732, offset: 0x1A815, size: 0x8, addend: 0x0, symName: __ZNSt3__112basic_stringIcNS_11char_traitsIcEENS_9allocatorIcEEEC2B8ne180100EOS5_, symObjAddr: 0x11FC0, symBinAddr: 0x1000287E0, symSize: 0x300 }
  - { offsetInCU: 0xA79C, offset: 0x1A87F, size: 0x8, addend: 0x0, symName: __ZZNSt3__112basic_stringIcNS_11char_traitsIcEENS_9allocatorIcEEEC1B8ne180100EOS5_ENKUlRS5_E_clES7_, symObjAddr: 0x122C0, symBinAddr: 0x100028AE0, symSize: 0xD0 }
  - { offsetInCU: 0xA7D4, offset: 0x1A8B7, size: 0x8, addend: 0x0, symName: __ZNSt3__16vectorINS_12basic_stringIcNS_11char_traitsIcEENS_9allocatorIcEEEENS4_IS6_EEE22__construct_one_at_endB8ne180100IJS6_EEEvDpOT_, symObjAddr: 0x126B0, symBinAddr: 0x100028BB0, symSize: 0x450 }
  - { offsetInCU: 0xA827, offset: 0x1A90A, size: 0x8, addend: 0x0, symName: __ZNSt3__16vectorINS_12basic_stringIcNS_11char_traitsIcEENS_9allocatorIcEEEENS4_IS6_EEE21__push_back_slow_pathIS6_EEPS6_OT_, symObjAddr: 0x12B00, symBinAddr: 0x100029000, symSize: 0x540 }
  - { offsetInCU: 0xA88B, offset: 0x1A96E, size: 0x8, addend: 0x0, symName: __ZNSt3__116allocator_traitsINS_9allocatorINS_12basic_stringIcNS_11char_traitsIcEENS1_IcEEEEEEE9constructB8ne180100IS6_JS6_EvEEvRS7_PT_DpOT0_, symObjAddr: 0x13040, symBinAddr: 0x100029540, symSize: 0x80 }
  - { offsetInCU: 0xA8E2, offset: 0x1A9C5, size: 0x8, addend: 0x0, symName: __ZNSt3__19allocatorINS_12basic_stringIcNS_11char_traitsIcEENS0_IcEEEEE9constructB8ne180100IS5_JS5_EEEvPT_DpOT0_, symObjAddr: 0x130C0, symBinAddr: 0x1000295C0, symSize: 0xC0 }
  - { offsetInCU: 0xA937, offset: 0x1AA1A, size: 0x8, addend: 0x0, symName: __ZNSt3__114__split_bufferINS_12basic_stringIcNS_11char_traitsIcEENS_9allocatorIcEEEERNS4_IS6_EEEC1EmmS8_, symObjAddr: 0x13180, symBinAddr: 0x100029680, symSize: 0x70 }
  - { offsetInCU: 0xA98C, offset: 0x1AA6F, size: 0x8, addend: 0x0, symName: __ZNSt3__114__split_bufferINS_12basic_stringIcNS_11char_traitsIcEENS_9allocatorIcEEEERNS4_IS6_EEED1Ev, symObjAddr: 0x13B00, symBinAddr: 0x10002A000, symSize: 0x50 }
  - { offsetInCU: 0xA9B7, offset: 0x1AA9A, size: 0x8, addend: 0x0, symName: __ZNSt3__114__split_bufferINS_12basic_stringIcNS_11char_traitsIcEENS_9allocatorIcEEEERNS4_IS6_EEEC2EmmS8_, symObjAddr: 0x13B50, symBinAddr: 0x10002A050, symSize: 0x6C0 }
  - { offsetInCU: 0xAA31, offset: 0x1AB14, size: 0x8, addend: 0x0, symName: __ZNSt3__117__compressed_pairIPNS_12basic_stringIcNS_11char_traitsIcEENS_9allocatorIcEEEERNS4_IS6_EEEC1B8ne180100IDnS9_EEOT_OT0_, symObjAddr: 0x14210, symBinAddr: 0x10002A710, symSize: 0x60 }
  - { offsetInCU: 0xAA88, offset: 0x1AB6B, size: 0x8, addend: 0x0, symName: __ZNSt3__114__split_bufferINS_12basic_stringIcNS_11char_traitsIcEENS_9allocatorIcEEEERNS4_IS6_EEE7__allocB8ne180100Ev, symObjAddr: 0x14270, symBinAddr: 0x10002A770, symSize: 0xB0 }
  - { offsetInCU: 0xAAAD, offset: 0x1AB90, size: 0x8, addend: 0x0, symName: __ZNSt3__114__split_bufferINS_12basic_stringIcNS_11char_traitsIcEENS_9allocatorIcEEEERNS4_IS6_EEE9__end_capB8ne180100Ev, symObjAddr: 0x14320, symBinAddr: 0x10002A820, symSize: 0xC0 }
  - { offsetInCU: 0xAAD2, offset: 0x1ABB5, size: 0x8, addend: 0x0, symName: __ZNSt3__117__compressed_pairIPNS_12basic_stringIcNS_11char_traitsIcEENS_9allocatorIcEEEERNS4_IS6_EEEC2B8ne180100IDnS9_EEOT_OT0_, symObjAddr: 0x143E0, symBinAddr: 0x10002A8E0, symSize: 0x130 }
  - { offsetInCU: 0xAB29, offset: 0x1AC0C, size: 0x8, addend: 0x0, symName: __ZNSt3__122__compressed_pair_elemIRNS_9allocatorINS_12basic_stringIcNS_11char_traitsIcEENS1_IcEEEEEELi1ELb0EEC2B8ne180100IS8_vEEOT_, symObjAddr: 0x14510, symBinAddr: 0x10002AA10, symSize: 0xA0 }
  - { offsetInCU: 0xAB6A, offset: 0x1AC4D, size: 0x8, addend: 0x0, symName: __ZNSt3__117__compressed_pairIPNS_12basic_stringIcNS_11char_traitsIcEENS_9allocatorIcEEEERNS4_IS6_EEE6secondB8ne180100Ev, symObjAddr: 0x145B0, symBinAddr: 0x10002AAB0, symSize: 0xD0 }
  - { offsetInCU: 0xAB8F, offset: 0x1AC72, size: 0x8, addend: 0x0, symName: __ZNSt3__122__compressed_pair_elemIRNS_9allocatorINS_12basic_stringIcNS_11char_traitsIcEENS1_IcEEEEEELi1ELb0EE5__getB8ne180100Ev, symObjAddr: 0x14680, symBinAddr: 0x10002AB80, symSize: 0xA0 }
  - { offsetInCU: 0xABB4, offset: 0x1AC97, size: 0x8, addend: 0x0, symName: __ZNSt3__117__compressed_pairIPNS_12basic_stringIcNS_11char_traitsIcEENS_9allocatorIcEEEERNS4_IS6_EEE5firstB8ne180100Ev, symObjAddr: 0x14720, symBinAddr: 0x10002AC20, symSize: 0xE0 }
  - { offsetInCU: 0xABD9, offset: 0x1ACBC, size: 0x8, addend: 0x0, symName: __ZNSt3__129_AllocatorDestroyRangeReverseINS_9allocatorINS_12basic_stringIcNS_11char_traitsIcEENS1_IcEEEEEENS_16reverse_iteratorIPS6_EEEC1B8ne180100ERS7_RSA_SD_, symObjAddr: 0x153A0, symBinAddr: 0x10002B8A0, symSize: 0x70 }
  - { offsetInCU: 0xAC2F, offset: 0x1AD12, size: 0x8, addend: 0x0, symName: __ZNSt3__128__exception_guard_exceptionsINS_29_AllocatorDestroyRangeReverseINS_9allocatorINS_12basic_stringIcNS_11char_traitsIcEENS2_IcEEEEEENS_16reverse_iteratorIPS7_EEEEE10__completeB8ne180100Ev, symObjAddr: 0x15410, symBinAddr: 0x10002B910, symSize: 0xA0 }
  - { offsetInCU: 0xAC54, offset: 0x1AD37, size: 0x8, addend: 0x0, symName: __ZNSt3__128__exception_guard_exceptionsINS_29_AllocatorDestroyRangeReverseINS_9allocatorINS_12basic_stringIcNS_11char_traitsIcEENS2_IcEEEEEENS_16reverse_iteratorIPS7_EEEEED1B8ne180100Ev, symObjAddr: 0x154B0, symBinAddr: 0x10002B9B0, symSize: 0x50 }
  - { offsetInCU: 0xAC7D, offset: 0x1AD60, size: 0x8, addend: 0x0, symName: __ZNSt3__128__exception_guard_exceptionsINS_29_AllocatorDestroyRangeReverseINS_9allocatorINS_12basic_stringIcNS_11char_traitsIcEENS2_IcEEEEEENS_16reverse_iteratorIPS7_EEEEEC1B8ne180100ESC_, symObjAddr: 0x15500, symBinAddr: 0x10002BA00, symSize: 0x280 }
  - { offsetInCU: 0xACB9, offset: 0x1AD9C, size: 0x8, addend: 0x0, symName: __ZNSt3__128__exception_guard_exceptionsINS_29_AllocatorDestroyRangeReverseINS_9allocatorINS_12basic_stringIcNS_11char_traitsIcEENS2_IcEEEEEENS_16reverse_iteratorIPS7_EEEEEC2B8ne180100ESC_, symObjAddr: 0x15780, symBinAddr: 0x10002BC80, symSize: 0x220 }
  - { offsetInCU: 0xACF5, offset: 0x1ADD8, size: 0x8, addend: 0x0, symName: __ZNSt3__129_AllocatorDestroyRangeReverseINS_9allocatorINS_12basic_stringIcNS_11char_traitsIcEENS1_IcEEEEEENS_16reverse_iteratorIPS6_EEEC2B8ne180100ERS7_RSA_SD_, symObjAddr: 0x159A0, symBinAddr: 0x10002BEA0, symSize: 0x190 }
  - { offsetInCU: 0xAD4B, offset: 0x1AE2E, size: 0x8, addend: 0x0, symName: __ZNSt3__128__exception_guard_exceptionsINS_29_AllocatorDestroyRangeReverseINS_9allocatorINS_12basic_stringIcNS_11char_traitsIcEENS2_IcEEEEEENS_16reverse_iteratorIPS7_EEEEED2B8ne180100Ev, symObjAddr: 0x15B30, symBinAddr: 0x10002C030, symSize: 0x120 }
  - { offsetInCU: 0xAD74, offset: 0x1AE57, size: 0x8, addend: 0x0, symName: __ZNKSt3__129_AllocatorDestroyRangeReverseINS_9allocatorINS_12basic_stringIcNS_11char_traitsIcEENS1_IcEEEEEENS_16reverse_iteratorIPS6_EEEclB8ne180100Ev, symObjAddr: 0x15C50, symBinAddr: 0x10002C150, symSize: 0x590 }
  - { offsetInCU: 0xAD9A, offset: 0x1AE7D, size: 0x8, addend: 0x0, symName: __ZNSt3__116reverse_iteratorINS0_IPNS_12basic_stringIcNS_11char_traitsIcEENS_9allocatorIcEEEEEEEC1B8ne180100ES8_, symObjAddr: 0x164E0, symBinAddr: 0x10002C9E0, symSize: 0x260 }
  - { offsetInCU: 0xADD6, offset: 0x1AEB9, size: 0x8, addend: 0x0, symName: __ZNSt3__116reverse_iteratorINS0_IPNS_12basic_stringIcNS_11char_traitsIcEENS_9allocatorIcEEEEEEEppB8ne180100Ev, symObjAddr: 0x16AB0, symBinAddr: 0x10002CFB0, symSize: 0xC0 }
  - { offsetInCU: 0xADFB, offset: 0x1AEDE, size: 0x8, addend: 0x0, symName: __ZNKSt3__116reverse_iteratorINS0_IPNS_12basic_stringIcNS_11char_traitsIcEENS_9allocatorIcEEEEEEE4baseB8ne180100Ev, symObjAddr: 0x16B70, symBinAddr: 0x10002D070, symSize: 0x1C0 }
  - { offsetInCU: 0xAE26, offset: 0x1AF09, size: 0x8, addend: 0x0, symName: __ZNSt3__119__to_address_helperINS_16reverse_iteratorINS1_IPNS_12basic_stringIcNS_11char_traitsIcEENS_9allocatorIcEEEEEEEEvE6__callB8ne180100ERKSA_, symObjAddr: 0x16D30, symBinAddr: 0x10002D230, symSize: 0x70 }
  - { offsetInCU: 0xAE49, offset: 0x1AF2C, size: 0x8, addend: 0x0, symName: __ZNKSt3__116reverse_iteratorINS0_IPNS_12basic_stringIcNS_11char_traitsIcEENS_9allocatorIcEEEEEEEptB8ne180100Ev, symObjAddr: 0x16DA0, symBinAddr: 0x10002D2A0, symSize: 0x50 }
  - { offsetInCU: 0xAE6E, offset: 0x1AF51, size: 0x8, addend: 0x0, symName: __ZNKSt3__116reverse_iteratorINS0_IPNS_12basic_stringIcNS_11char_traitsIcEENS_9allocatorIcEEEEEEEdeB8ne180100Ev, symObjAddr: 0x16DF0, symBinAddr: 0x10002D2F0, symSize: 0x210 }
  - { offsetInCU: 0xAEA6, offset: 0x1AF89, size: 0x8, addend: 0x0, symName: __ZNSt3__116reverse_iteratorIPNS_12basic_stringIcNS_11char_traitsIcEENS_9allocatorIcEEEEEmmB8ne180100Ev, symObjAddr: 0x17000, symBinAddr: 0x10002D500, symSize: 0x130 }
  - { offsetInCU: 0xAECB, offset: 0x1AFAE, size: 0x8, addend: 0x0, symName: __ZNSt3__116reverse_iteratorINS0_IPNS_12basic_stringIcNS_11char_traitsIcEENS_9allocatorIcEEEEEEEC2B8ne180100ES8_, symObjAddr: 0x17130, symBinAddr: 0x10002D630, symSize: 0x210 }
  - { offsetInCU: 0xAF07, offset: 0x1AFEA, size: 0x8, addend: 0x0, symName: __ZNSt3__114__split_bufferINS_12basic_stringIcNS_11char_traitsIcEENS_9allocatorIcEEEERNS4_IS6_EEED2Ev, symObjAddr: 0x17340, symBinAddr: 0x10002D840, symSize: 0x120 }
  - { offsetInCU: 0xAF32, offset: 0x1B015, size: 0x8, addend: 0x0, symName: __ZNSt3__114__split_bufferINS_12basic_stringIcNS_11char_traitsIcEENS_9allocatorIcEEEERNS4_IS6_EEE5clearB8ne180100Ev, symObjAddr: 0x17460, symBinAddr: 0x10002D960, symSize: 0x90 }
  - { offsetInCU: 0xAF57, offset: 0x1B03A, size: 0x8, addend: 0x0, symName: __ZNKSt3__114__split_bufferINS_12basic_stringIcNS_11char_traitsIcEENS_9allocatorIcEEEERNS4_IS6_EEE8capacityB8ne180100Ev, symObjAddr: 0x174F0, symBinAddr: 0x10002D9F0, symSize: 0x100 }
  - { offsetInCU: 0xAF7C, offset: 0x1B05F, size: 0x8, addend: 0x0, symName: __ZNSt3__114__split_bufferINS_12basic_stringIcNS_11char_traitsIcEENS_9allocatorIcEEEERNS4_IS6_EEE17__destruct_at_endB8ne180100EPS6_, symObjAddr: 0x175F0, symBinAddr: 0x10002DAF0, symSize: 0x60 }
  - { offsetInCU: 0xAFAE, offset: 0x1B091, size: 0x8, addend: 0x0, symName: __ZNSt3__114__split_bufferINS_12basic_stringIcNS_11char_traitsIcEENS_9allocatorIcEEEERNS4_IS6_EEE17__destruct_at_endB8ne180100EPS6_NS_17integral_constantIbLb0EEE, symObjAddr: 0x17650, symBinAddr: 0x10002DB50, symSize: 0x1B0 }
  - { offsetInCU: 0xAFEE, offset: 0x1B0D1, size: 0x8, addend: 0x0, symName: __ZNKSt3__114__split_bufferINS_12basic_stringIcNS_11char_traitsIcEENS_9allocatorIcEEEERNS4_IS6_EEE9__end_capB8ne180100Ev, symObjAddr: 0x17800, symBinAddr: 0x10002DD00, symSize: 0xC0 }
  - { offsetInCU: 0xB013, offset: 0x1B0F6, size: 0x8, addend: 0x0, symName: __ZNKSt3__117__compressed_pairIPNS_12basic_stringIcNS_11char_traitsIcEENS_9allocatorIcEEEERNS4_IS6_EEE5firstB8ne180100Ev, symObjAddr: 0x178C0, symBinAddr: 0x10002DDC0, symSize: 0xE0 }
  - { offsetInCU: 0xB038, offset: 0x1B11B, size: 0x8, addend: 0x0, symName: __ZNKSt3__16vectorINS_12basic_stringIcNS_11char_traitsIcEENS_9allocatorIcEEEENS4_IS6_EEE20__throw_out_of_rangeB8ne180100Ev, symObjAddr: 0x179A0, symBinAddr: 0x10002DEA0, symSize: 0x70 }
  - { offsetInCU: 0xB05D, offset: 0x1B140, size: 0x8, addend: 0x0, symName: __ZNSt12out_of_rangeC1B8ne180100EPKc, symObjAddr: 0x17AC0, symBinAddr: 0x10002DFC0, symSize: 0x60 }
  - { offsetInCU: 0xB094, offset: 0x1B177, size: 0x8, addend: 0x0, symName: __ZNSt12out_of_rangeC2B8ne180100EPKc, symObjAddr: 0x17B20, symBinAddr: 0x10002E020, symSize: 0xD0 }
  - { offsetInCU: 0xB0CB, offset: 0x1B1AE, size: 0x8, addend: 0x0, symName: __ZNKSt3__16vectorINS_12basic_stringIcNS_11char_traitsIcEENS_9allocatorIcEEEENS4_IS6_EEE6cbeginB8ne180100Ev, symObjAddr: 0x17F30, symBinAddr: 0x10002E190, symSize: 0x1E0 }
  - { offsetInCU: 0xB0F1, offset: 0x1B1D4, size: 0x8, addend: 0x0, symName: __ZNKSt3__111__wrap_iterIPKNS_12basic_stringIcNS_11char_traitsIcEENS_9allocatorIcEEEEE4baseB8ne180100Ev, symObjAddr: 0x18360, symBinAddr: 0x10002E5C0, symSize: 0x80 }
  - { offsetInCU: 0xB115, offset: 0x1B1F8, size: 0x8, addend: 0x0, symName: __ZNKSt3__16vectorINS_12basic_stringIcNS_11char_traitsIcEENS_9allocatorIcEEEENS4_IS6_EEE5beginB8ne180100Ev, symObjAddr: 0x183E0, symBinAddr: 0x10002E640, symSize: 0x210 }
  - { offsetInCU: 0xB13D, offset: 0x1B220, size: 0x8, addend: 0x0, symName: __ZNKSt3__16vectorINS_12basic_stringIcNS_11char_traitsIcEENS_9allocatorIcEEEENS4_IS6_EEE11__make_iterB8ne180100EPKS6_, symObjAddr: 0x185F0, symBinAddr: 0x10002E850, symSize: 0x1B0 }
  - { offsetInCU: 0xB173, offset: 0x1B256, size: 0x8, addend: 0x0, symName: __ZNSt3__111__wrap_iterIPKNS_12basic_stringIcNS_11char_traitsIcEENS_9allocatorIcEEEEEC1B8ne180100ES8_, symObjAddr: 0x187A0, symBinAddr: 0x10002EA00, symSize: 0x60 }
  - { offsetInCU: 0xB1AA, offset: 0x1B28D, size: 0x8, addend: 0x0, symName: __ZNSt3__111__wrap_iterIPKNS_12basic_stringIcNS_11char_traitsIcEENS_9allocatorIcEEEEEC2B8ne180100ES8_, symObjAddr: 0x18800, symBinAddr: 0x10002EA60, symSize: 0x90 }
  - { offsetInCU: 0xB1EB, offset: 0x1B2CE, size: 0x8, addend: 0x0, symName: __ZNKSt3__111__move_loopINS_17_ClassicAlgPolicyEEclB8ne180100IPNS_12basic_stringIcNS_11char_traitsIcEENS_9allocatorIcEEEESA_SA_EENS_4pairIT_T1_EESC_T0_SD_, symObjAddr: 0x19390, symBinAddr: 0x10002F5F0, symSize: 0x5C0 }
  - { offsetInCU: 0xB264, offset: 0x1B347, size: 0x8, addend: 0x0, symName: __ZNSt3__18_IterOpsINS_17_ClassicAlgPolicyEE11__iter_moveB8ne180100IRPNS_12basic_stringIcNS_11char_traitsIcEENS_9allocatorIcEEEELi0EEEDTclsr3stdE4movedeclsr3stdE7declvalIRT_EEEEOSC_, symObjAddr: 0x19950, symBinAddr: 0x10002FBB0, symSize: 0xC0 }
  - { offsetInCU: 0xB296, offset: 0x1B379, size: 0x8, addend: 0x0, symName: __ZNSt3__18_IterOpsINS_17_ClassicAlgPolicyEE25__validate_iter_referenceB8ne180100IRPNS_12basic_stringIcNS_11char_traitsIcEENS_9allocatorIcEEEEEEvv, symObjAddr: 0x19A10, symBinAddr: 0x10002FC70, symSize: 0x10 }
  - { offsetInCU: 0xB2B3, offset: 0x1B396, size: 0x8, addend: 0x0, symName: __ZNSt3__16vectorINS_12basic_stringIcNS_11char_traitsIcEENS_9allocatorIcEEEENS4_IS6_EEE12__move_rangeEPS6_S9_S9_, symObjAddr: 0x19AC0, symBinAddr: 0x10002FD20, symSize: 0x700 }
  - { offsetInCU: 0xB379, offset: 0x1B45C, size: 0x8, addend: 0x0, symName: __ZNSt3__114__split_bufferINS_12basic_stringIcNS_11char_traitsIcEENS_9allocatorIcEEEERNS4_IS6_EEE9push_backEOS6_, symObjAddr: 0x1A1C0, symBinAddr: 0x100030420, symSize: 0x1010 }
  - { offsetInCU: 0xB401, offset: 0x1B4E4, size: 0x8, addend: 0x0, symName: __ZNKSt3__120__move_backward_loopINS_17_ClassicAlgPolicyEEclB8ne180100IPNS_12basic_stringIcNS_11char_traitsIcEENS_9allocatorIcEEEESA_SA_EENS_4pairIT_T1_EESC_T0_SD_, symObjAddr: 0x1CA20, symBinAddr: 0x100032C80, symSize: 0x690 }
  - { offsetInCU: 0xB497, offset: 0x1B57A, size: 0x8, addend: 0x0, symName: __ZNSt3__18_IterOpsINS_17_ClassicAlgPolicyEE4nextB8ne180100IPNS_12basic_stringIcNS_11char_traitsIcEENS_9allocatorIcEEEEEET_SB_SB_, symObjAddr: 0x1D0B0, symBinAddr: 0x100033310, symSize: 0x20 }
  - { offsetInCU: 0xB4CD, offset: 0x1B5B0, size: 0x8, addend: 0x0, symName: __ZNSt3__114__split_bufferINS_12basic_stringIcNS_11char_traitsIcEENS_9allocatorIcEEEERNS4_IS6_EEE18__construct_at_endINS_13move_iteratorIPS6_EELi0EEEvT_SE_, symObjAddr: 0x1D0D0, symBinAddr: 0x100033330, symSize: 0x380 }
  - { offsetInCU: 0xB528, offset: 0x1B60B, size: 0x8, addend: 0x0, symName: __ZNSt3__113move_iteratorIPNS_12basic_stringIcNS_11char_traitsIcEENS_9allocatorIcEEEEEC1B8ne180100ES7_, symObjAddr: 0x1D450, symBinAddr: 0x1000336B0, symSize: 0x60 }
  - { offsetInCU: 0xB55E, offset: 0x1B641, size: 0x8, addend: 0x0, symName: __ZNSt3__114__split_bufferINS_12basic_stringIcNS_11char_traitsIcEENS_9allocatorIcEEEERNS4_IS6_EEE28__construct_at_end_with_sizeINS_13move_iteratorIPS6_EEEEvT_m, symObjAddr: 0x1D4B0, symBinAddr: 0x100033710, symSize: 0x530 }
  - { offsetInCU: 0xB5CD, offset: 0x1B6B0, size: 0x8, addend: 0x0, symName: __ZNSt3__114__split_bufferINS_12basic_stringIcNS_11char_traitsIcEENS_9allocatorIcEEEERNS4_IS6_EEE21_ConstructTransactionC1B8ne180100EPPS6_m, symObjAddr: 0x1DCA0, symBinAddr: 0x100033F00, symSize: 0x60 }
  - { offsetInCU: 0xB612, offset: 0x1B6F5, size: 0x8, addend: 0x0, symName: __ZNKSt3__113move_iteratorIPNS_12basic_stringIcNS_11char_traitsIcEENS_9allocatorIcEEEEEdeB8ne180100Ev, symObjAddr: 0x1DD00, symBinAddr: 0x100033F60, symSize: 0xB0 }
  - { offsetInCU: 0xB637, offset: 0x1B71A, size: 0x8, addend: 0x0, symName: __ZNSt3__113move_iteratorIPNS_12basic_stringIcNS_11char_traitsIcEENS_9allocatorIcEEEEEppB8ne180100Ev, symObjAddr: 0x1DDB0, symBinAddr: 0x100034010, symSize: 0x130 }
  - { offsetInCU: 0xB65C, offset: 0x1B73F, size: 0x8, addend: 0x0, symName: __ZNSt3__114__split_bufferINS_12basic_stringIcNS_11char_traitsIcEENS_9allocatorIcEEEERNS4_IS6_EEE21_ConstructTransactionD1B8ne180100Ev, symObjAddr: 0x1DEE0, symBinAddr: 0x100034140, symSize: 0x50 }
  - { offsetInCU: 0xB685, offset: 0x1B768, size: 0x8, addend: 0x0, symName: __ZNSt3__114__split_bufferINS_12basic_stringIcNS_11char_traitsIcEENS_9allocatorIcEEEERNS4_IS6_EEE21_ConstructTransactionC2B8ne180100EPPS6_m, symObjAddr: 0x1DF30, symBinAddr: 0x100034190, symSize: 0x230 }
  - { offsetInCU: 0xB6CA, offset: 0x1B7AD, size: 0x8, addend: 0x0, symName: __ZNSt3__114__split_bufferINS_12basic_stringIcNS_11char_traitsIcEENS_9allocatorIcEEEERNS4_IS6_EEE21_ConstructTransactionD2B8ne180100Ev, symObjAddr: 0x1E160, symBinAddr: 0x1000343C0, symSize: 0x120 }
  - { offsetInCU: 0xB6F3, offset: 0x1B7D6, size: 0x8, addend: 0x0, symName: __ZNKSt3__113move_iteratorIPNS_12basic_stringIcNS_11char_traitsIcEENS_9allocatorIcEEEEE4baseB8ne180100Ev, symObjAddr: 0x1E500, symBinAddr: 0x100034760, symSize: 0x80 }
  - { offsetInCU: 0xB718, offset: 0x1B7FB, size: 0x8, addend: 0x0, symName: __ZNSt3__113move_iteratorIPNS_12basic_stringIcNS_11char_traitsIcEENS_9allocatorIcEEEEEC2B8ne180100ES7_, symObjAddr: 0x1E580, symBinAddr: 0x1000347E0, symSize: 0x90 }
  - { offsetInCU: 0x3B, offset: 0x1B953, size: 0x8, addend: 0x0, symName: _.str, symObjAddr: 0x35280, symBinAddr: 0x1000522A0, symSize: 0x0 }
  - { offsetInCU: 0x6B, offset: 0x1B983, size: 0x8, addend: 0x0, symName: _.str.1, symObjAddr: 0x352A0, symBinAddr: 0x1000522C0, symSize: 0x0 }
  - { offsetInCU: 0x88, offset: 0x1B9A0, size: 0x8, addend: 0x0, symName: _.str.2, symObjAddr: 0x352C0, symBinAddr: 0x1000522E0, symSize: 0x0 }
  - { offsetInCU: 0x99, offset: 0x1B9B1, size: 0x8, addend: 0x0, symName: _.str.3, symObjAddr: 0x352E0, symBinAddr: 0x100052300, symSize: 0x0 }
  - { offsetInCU: 0xAA, offset: 0x1B9C2, size: 0x8, addend: 0x0, symName: _.str.4, symObjAddr: 0x35300, symBinAddr: 0x100052320, symSize: 0x0 }
  - { offsetInCU: 0xC7, offset: 0x1B9DF, size: 0x8, addend: 0x0, symName: _.str.5, symObjAddr: 0x35360, symBinAddr: 0x100052380, symSize: 0x0 }
  - { offsetInCU: 0xD8, offset: 0x1B9F0, size: 0x8, addend: 0x0, symName: _.str.6, symObjAddr: 0x353C0, symBinAddr: 0x1000523E0, symSize: 0x0 }
  - { offsetInCU: 0xF6, offset: 0x1BA0E, size: 0x8, addend: 0x0, symName: _.str.59, symObjAddr: 0x353E0, symBinAddr: 0x100052400, symSize: 0x0 }
  - { offsetInCU: 0x108, offset: 0x1BA20, size: 0x8, addend: 0x0, symName: _.str.88, symObjAddr: 0x35400, symBinAddr: 0x100052420, symSize: 0x0 }
  - { offsetInCU: 0x511C, offset: 0x20A34, size: 0x8, addend: 0x0, symName: __ZNSt3__16copy_nB8ne180100IPKcmPcLi0EEET1_T_T0_S4_, symObjAddr: 0x17A20, symBinAddr: 0x10003AEF0, symSize: 0xB0 }
  - { offsetInCU: 0x5FBA, offset: 0x218D2, size: 0x8, addend: 0x0, symName: __ZNSt3__1neB8ne180100IPP7CommandEEbRKNS_11__wrap_iterIT_EES8_, symObjAddr: 0x2760, symBinAddr: 0x100037610, symSize: 0xA0 }
  - { offsetInCU: 0x5FFD, offset: 0x21915, size: 0x8, addend: 0x0, symName: __ZNSt3__1plB8ne180100IcNS_11char_traitsIcEENS_9allocatorIcEEEENS_12basic_stringIT_T0_T1_EEPKS6_OS9_, symObjAddr: 0x37D0, symBinAddr: 0x100037A60, symSize: 0xE0 }
  - { offsetInCU: 0x6055, offset: 0x2196D, size: 0x8, addend: 0x0, symName: __ZNSt3__1plB8ne180100IcNS_11char_traitsIcEENS_9allocatorIcEEEENS_12basic_stringIT_T0_T1_EEOS9_RKS9_, symObjAddr: 0x38B0, symBinAddr: 0x100037B40, symSize: 0x110 }
  - { offsetInCU: 0x60AD, offset: 0x219C5, size: 0x8, addend: 0x0, symName: __ZNSt3__1plB8ne180100IcNS_11char_traitsIcEENS_9allocatorIcEEEENS_12basic_stringIT_T0_T1_EERKS9_SB_, symObjAddr: 0x39C0, symBinAddr: 0x100037C50, symSize: 0x520 }
  - { offsetInCU: 0x6154, offset: 0x21A6C, size: 0x8, addend: 0x0, symName: __ZNSt3__1eqB8ne180100IPP7CommandEEbRKNS_11__wrap_iterIT_EES8_, symObjAddr: 0x42B0, symBinAddr: 0x100038400, symSize: 0xA0 }
  - { offsetInCU: 0x6197, offset: 0x21AAF, size: 0x8, addend: 0x0, symName: __ZNSt3__112__to_addressB8ne180100IP7CommandEEPT_S4_, symObjAddr: 0x6DF0, symBinAddr: 0x1000396D0, symSize: 0x20 }
  - { offsetInCU: 0x61CC, offset: 0x21AE4, size: 0x8, addend: 0x0, symName: __ZNSt3__14copyB8ne180100IPKcPcEET0_T_S5_S4_, symObjAddr: 0x17AD0, symBinAddr: 0x10003AFA0, symSize: 0x250 }
  - { offsetInCU: 0x6229, offset: 0x21B41, size: 0x8, addend: 0x0, symName: __ZNSt3__16__copyB8ne180100INS_17_ClassicAlgPolicyEPKcS3_PcEENS_4pairIT0_T2_EES6_T1_S7_, symObjAddr: 0x17D20, symBinAddr: 0x10003B1F0, symSize: 0x220 }
  - { offsetInCU: 0x6298, offset: 0x21BB0, size: 0x8, addend: 0x0, symName: __ZNSt3__123__dispatch_copy_or_moveB8ne180100INS_17_ClassicAlgPolicyENS_11__copy_loopIS1_EENS_14__copy_trivialEPKcS6_PcEENS_4pairIT2_T4_EES9_T3_SA_, symObjAddr: 0x17F40, symBinAddr: 0x10003B410, symSize: 0x220 }
  - { offsetInCU: 0x6319, offset: 0x21C31, size: 0x8, addend: 0x0, symName: __ZNSt3__121__unwrap_and_dispatchB8ne180100INS_10__overloadINS_11__copy_loopINS_17_ClassicAlgPolicyEEENS_14__copy_trivialEEEPKcS8_PcLi0EEENS_4pairIT0_T2_EESB_T1_SC_, symObjAddr: 0x18160, symBinAddr: 0x10003B630, symSize: 0x6C0 }
  - { offsetInCU: 0x63B2, offset: 0x21CCA, size: 0x8, addend: 0x0, symName: __ZNSt3__114__unwrap_rangeB8ne180100IPKcS2_EENS_4pairIT0_S4_EET_S6_, symObjAddr: 0x18820, symBinAddr: 0x10003BCF0, symSize: 0x300 }
  - { offsetInCU: 0x6549, offset: 0x21E61, size: 0x8, addend: 0x0, symName: __ZNSt3__113__unwrap_iterB8ne180100IPcNS_18__unwrap_iter_implIS1_Lb1EEELi0EEEDTclsrT0_8__unwrapclsr3stdE7declvalIT_EEEES5_, symObjAddr: 0x18D70, symBinAddr: 0x10003C240, symSize: 0x30 }
  - { offsetInCU: 0x658D, offset: 0x21EA5, size: 0x8, addend: 0x0, symName: __ZNSt3__19make_pairB8ne180100IPKcPcEENS_4pairINS_18__unwrap_ref_decayIT_E4typeENS5_IT0_E4typeEEEOS6_OS9_, symObjAddr: 0x18DA0, symBinAddr: 0x10003C270, symSize: 0x210 }
  - { offsetInCU: 0x65DE, offset: 0x21EF6, size: 0x8, addend: 0x0, symName: __ZNSt3__114__rewrap_rangeB8ne180100IPKcS2_EET_S3_T0_, symObjAddr: 0x18FB0, symBinAddr: 0x10003C480, symSize: 0x30 }
  - { offsetInCU: 0x662A, offset: 0x21F42, size: 0x8, addend: 0x0, symName: __ZNSt3__113__rewrap_iterB8ne180100IPcS1_NS_18__unwrap_iter_implIS1_Lb1EEEEET_S4_T0_, symObjAddr: 0x18FE0, symBinAddr: 0x10003C4B0, symSize: 0x50 }
  - { offsetInCU: 0x667F, offset: 0x21F97, size: 0x8, addend: 0x0, symName: __ZNSt3__19make_pairB8ne180100IPKcS2_EENS_4pairINS_18__unwrap_ref_decayIT_E4typeENS4_IT0_E4typeEEEOS5_OS8_, symObjAddr: 0x19030, symBinAddr: 0x10003C500, symSize: 0x210 }
  - { offsetInCU: 0x66D0, offset: 0x21FE8, size: 0x8, addend: 0x0, symName: __ZNSt3__113__unwrap_iterB8ne180100IPKcNS_18__unwrap_iter_implIS2_Lb1EEELi0EEEDTclsrT0_8__unwrapclsr3stdE7declvalIT_EEEES6_, symObjAddr: 0x19240, symBinAddr: 0x10003C710, symSize: 0x30 }
  - { offsetInCU: 0x683B, offset: 0x22153, size: 0x8, addend: 0x0, symName: __ZNSt3__119__copy_trivial_implB8ne180100IKccEENS_4pairIPT_PT0_EES4_S4_S6_, symObjAddr: 0x19490, symBinAddr: 0x10003C960, symSize: 0x3C0 }
  - { offsetInCU: 0x68AA, offset: 0x221C2, size: 0x8, addend: 0x0, symName: __ZNSt3__119__constexpr_memmoveB8ne180100IcKcLi0EEEPT_S3_PT0_NS_15__element_countE, symObjAddr: 0x19850, symBinAddr: 0x10003CD20, symSize: 0x60 }
  - { offsetInCU: 0x6918, offset: 0x22230, size: 0x8, addend: 0x0, symName: __ZNSt3__19make_pairB8ne180100IRPKcPcEENS_4pairINS_18__unwrap_ref_decayIT_E4typeENS6_IT0_E4typeEEEOS7_OSA_, symObjAddr: 0x198B0, symBinAddr: 0x10003CD80, symSize: 0x210 }
  - { offsetInCU: 0x69BC, offset: 0x222D4, size: 0x8, addend: 0x0, symName: __ZNSt3__113__rewrap_iterB8ne180100IPKcS2_NS_18__unwrap_iter_implIS2_Lb1EEEEET_S5_T0_, symObjAddr: 0x19ED0, symBinAddr: 0x10003D3A0, symSize: 0x50 }
  - { offsetInCU: 0x6A11, offset: 0x22329, size: 0x8, addend: 0x0, symName: __ZNSt3__16fill_nB8ne180100IPcmcEET_S2_T0_RKT1_, symObjAddr: 0x1A080, symBinAddr: 0x10003D550, symSize: 0x70 }
  - { offsetInCU: 0x6A74, offset: 0x2238C, size: 0x8, addend: 0x0, symName: __ZNSt3__18__fill_nB8ne180100IPcmcEET_S2_T0_RKT1_, symObjAddr: 0x1A0F0, symBinAddr: 0x10003D5C0, symSize: 0x150 }
  - { offsetInCU: 0x6AD7, offset: 0x223EF, size: 0x8, addend: 0x0, symName: __ZNSt3__121__convert_to_integralB8ne180100Em, symObjAddr: 0x1A240, symBinAddr: 0x10003D710, symSize: 0x20 }
  - { offsetInCU: 0x6B03, offset: 0x2241B, size: 0x8, addend: 0x0, symName: __ZNSt3__122__make_exception_guardB8ne180100INS_6vectorINS_12basic_stringIcNS_11char_traitsIcEENS_9allocatorIcEEEENS5_IS7_EEE16__destroy_vectorEEENS_28__exception_guard_exceptionsIT_EESC_, symObjAddr: 0x1AC50, symBinAddr: 0x10003E020, symSize: 0x220 }
  - { offsetInCU: 0x6B3C, offset: 0x22454, size: 0x8, addend: 0x0, symName: __ZNSt3__119__allocate_at_leastB8ne180100INS_9allocatorIP7CommandEEEENS_19__allocation_resultINS_16allocator_traitsIT_E7pointerEEERS7_m, symObjAddr: 0x21290, symBinAddr: 0x100041790, symSize: 0x210 }
  - { offsetInCU: 0x6B81, offset: 0x22499, size: 0x8, addend: 0x0, symName: __ZNSt3__142__uninitialized_allocator_move_if_noexceptB8ne180100INS_9allocatorIP7CommandEENS_16reverse_iteratorIPS3_EES7_S3_vEET1_RT_T0_SB_S8_, symObjAddr: 0x21AE0, symBinAddr: 0x100041FE0, symSize: 0x610 }
  - { offsetInCU: 0x6C0B, offset: 0x22523, size: 0x8, addend: 0x0, symName: __ZNSt3__14swapB8ne180100IPP7CommandEENS_9enable_ifIXaasr21is_move_constructibleIT_EE5valuesr18is_move_assignableIS5_EE5valueEvE4typeERS5_S8_, symObjAddr: 0x221D0, symBinAddr: 0x1000426D0, symSize: 0x170 }
  - { offsetInCU: 0x6C5C, offset: 0x22574, size: 0x8, addend: 0x0, symName: __ZNSt3__14moveB8ne180100INS_16reverse_iteratorIPP7CommandEES5_EET0_T_S7_S6_, symObjAddr: 0x22490, symBinAddr: 0x100042990, symSize: 0x670 }
  - { offsetInCU: 0x6CC3, offset: 0x225DB, size: 0x8, addend: 0x0, symName: __ZNSt3__16__moveB8ne180100INS_17_ClassicAlgPolicyENS_16reverse_iteratorIPP7CommandEES6_S6_EENS_4pairIT0_T2_EES8_T1_S9_, symObjAddr: 0x22B00, symBinAddr: 0x100043000, symSize: 0x560 }
  - { offsetInCU: 0x6D3B, offset: 0x22653, size: 0x8, addend: 0x0, symName: __ZNSt3__123__dispatch_copy_or_moveB8ne180100INS_17_ClassicAlgPolicyENS_11__move_loopIS1_EENS_14__move_trivialENS_16reverse_iteratorIPP7CommandEES9_S9_EENS_4pairIT2_T4_EESB_T3_SC_, symObjAddr: 0x23060, symBinAddr: 0x100043560, symSize: 0x560 }
  - { offsetInCU: 0x6DC5, offset: 0x226DD, size: 0x8, addend: 0x0, symName: __ZNSt3__121__unwrap_and_dispatchB8ne180100INS_10__overloadINS_11__move_loopINS_17_ClassicAlgPolicyEEENS_14__move_trivialEEENS_16reverse_iteratorIPP7CommandEESB_SB_Li0EEENS_4pairIT0_T2_EESD_T1_SE_, symObjAddr: 0x235C0, symBinAddr: 0x100043AC0, symSize: 0xD40 }
  - { offsetInCU: 0x6E69, offset: 0x22781, size: 0x8, addend: 0x0, symName: __ZNSt3__114__unwrap_rangeB8ne180100INS_16reverse_iteratorIPP7CommandEES5_EENS_4pairIT0_S7_EET_S9_, symObjAddr: 0x24300, symBinAddr: 0x100044800, symSize: 0x5A0 }
  - { offsetInCU: 0x6FE3, offset: 0x228FB, size: 0x8, addend: 0x0, symName: __ZNSt3__113__unwrap_iterB8ne180100INS_16reverse_iteratorIPP7CommandEENS_18__unwrap_iter_implIS5_Lb0EEELi0EEEDTclsrT0_8__unwrapclsr3stdE7declvalIT_EEEES9_, symObjAddr: 0x24D30, symBinAddr: 0x100045230, symSize: 0x340 }
  - { offsetInCU: 0x702B, offset: 0x22943, size: 0x8, addend: 0x0, symName: __ZNSt3__19make_pairB8ne180100INS_16reverse_iteratorIPP7CommandEES5_EENS_4pairINS_18__unwrap_ref_decayIT_E4typeENS7_IT0_E4typeEEEOS8_OSB_, symObjAddr: 0x25070, symBinAddr: 0x100045570, symSize: 0xE0 }
  - { offsetInCU: 0x707A, offset: 0x22992, size: 0x8, addend: 0x0, symName: __ZNSt3__114__rewrap_rangeB8ne180100INS_16reverse_iteratorIPP7CommandEES5_EET_S6_T0_, symObjAddr: 0x25150, symBinAddr: 0x100045650, symSize: 0x4E0 }
  - { offsetInCU: 0x70CE, offset: 0x229E6, size: 0x8, addend: 0x0, symName: __ZNSt3__113__rewrap_iterB8ne180100INS_16reverse_iteratorIPP7CommandEES5_NS_18__unwrap_iter_implIS5_Lb0EEEEET_S8_T0_, symObjAddr: 0x25630, symBinAddr: 0x100045B30, symSize: 0x500 }
  - { offsetInCU: 0x712B, offset: 0x22A43, size: 0x8, addend: 0x0, symName: __ZNSt3__1neB8ne180100IPP7CommandS3_EEbRKNS_16reverse_iteratorIT_EERKNS4_IT0_EE, symObjAddr: 0x25B30, symBinAddr: 0x100046030, symSize: 0xA0 }
  - { offsetInCU: 0x77B6, offset: 0x230CE, size: 0x8, addend: 0x0, symName: __ZNSt3__16vectorIP7CommandNS_9allocatorIS2_EEE26__swap_out_circular_bufferERNS_14__split_bufferIS2_RS4_EE, symObjAddr: 0x1FC60, symBinAddr: 0x100040160, symSize: 0x910 }
  - { offsetInCU: 0x973C, offset: 0x25054, size: 0x8, addend: 0x0, symName: __ZN9TokenizerC2ENSt3__112basic_stringIcNS0_11char_traitsIcEENS0_9allocatorIcEEEE, symObjAddr: 0x0, symBinAddr: 0x100035020, symSize: 0x480 }
  - { offsetInCU: 0x9778, offset: 0x25090, size: 0x8, addend: 0x0, symName: __ZNSt3__16vectorIP7CommandNS_9allocatorIS2_EEEC1B8ne180100Ev, symObjAddr: 0x4D0, symBinAddr: 0x1000354A0, symSize: 0x50 }
  - { offsetInCU: 0x97A1, offset: 0x250B9, size: 0x8, addend: 0x0, symName: __ZN9Tokenizer4trimENSt3__112basic_stringIcNS0_11char_traitsIcEENS0_9allocatorIcEEEE, symObjAddr: 0x520, symBinAddr: 0x1000354F0, symSize: 0x220 }
  - { offsetInCU: 0x97F3, offset: 0x2510B, size: 0x8, addend: 0x0, symName: __ZN9Tokenizer5splitENSt3__112basic_stringIcNS0_11char_traitsIcEENS0_9allocatorIcEEEE, symObjAddr: 0x800, symBinAddr: 0x100035710, symSize: 0x1600 }
  - { offsetInCU: 0x98CF, offset: 0x251E7, size: 0x8, addend: 0x0, symName: __ZNSt3__16vectorIP7CommandNS_9allocatorIS2_EEED1B8ne180100Ev, symObjAddr: 0x1E60, symBinAddr: 0x100036D10, symSize: 0x50 }
  - { offsetInCU: 0x98F8, offset: 0x25210, size: 0x8, addend: 0x0, symName: __ZN9TokenizerC1ENSt3__112basic_stringIcNS0_11char_traitsIcEENS0_9allocatorIcEEEE, symObjAddr: 0x1EB0, symBinAddr: 0x100036D60, symSize: 0x60 }
  - { offsetInCU: 0x9932, offset: 0x2524A, size: 0x8, addend: 0x0, symName: __ZN9TokenizerD2Ev, symObjAddr: 0x1F10, symBinAddr: 0x100036DC0, symSize: 0x420 }
  - { offsetInCU: 0x99B8, offset: 0x252D0, size: 0x8, addend: 0x0, symName: __ZNSt3__16vectorIP7CommandNS_9allocatorIS2_EEE5beginB8ne180100Ev, symObjAddr: 0x2330, symBinAddr: 0x1000371E0, symSize: 0x210 }
  - { offsetInCU: 0x99DF, offset: 0x252F7, size: 0x8, addend: 0x0, symName: __ZNSt3__16vectorIP7CommandNS_9allocatorIS2_EEE3endB8ne180100Ev, symObjAddr: 0x2540, symBinAddr: 0x1000373F0, symSize: 0x220 }
  - { offsetInCU: 0x9A07, offset: 0x2531F, size: 0x8, addend: 0x0, symName: __ZNKSt3__111__wrap_iterIPP7CommandEdeB8ne180100Ev, symObjAddr: 0x2800, symBinAddr: 0x1000376B0, symSize: 0xB0 }
  - { offsetInCU: 0x9A2C, offset: 0x25344, size: 0x8, addend: 0x0, symName: __ZN7CommandD1Ev, symObjAddr: 0x28B0, symBinAddr: 0x100037760, symSize: 0x50 }
  - { offsetInCU: 0x9A55, offset: 0x2536D, size: 0x8, addend: 0x0, symName: __ZNSt3__111__wrap_iterIPP7CommandEppB8ne180100Ev, symObjAddr: 0x2900, symBinAddr: 0x1000377B0, symSize: 0x130 }
  - { offsetInCU: 0x9A7A, offset: 0x25392, size: 0x8, addend: 0x0, symName: __ZNSt3__16vectorIP7CommandNS_9allocatorIS2_EEE5clearB8ne180100Ev, symObjAddr: 0x2A30, symBinAddr: 0x1000378E0, symSize: 0x70 }
  - { offsetInCU: 0x9AAE, offset: 0x253C6, size: 0x8, addend: 0x0, symName: __ZN9TokenizerD1Ev, symObjAddr: 0x2AA0, symBinAddr: 0x100037950, symSize: 0x50 }
  - { offsetInCU: 0x9AD9, offset: 0x253F1, size: 0x8, addend: 0x0, symName: __ZN9Tokenizer8hasErrorEv, symObjAddr: 0x2AF0, symBinAddr: 0x1000379A0, symSize: 0xC0 }
  - { offsetInCU: 0x9AFF, offset: 0x25417, size: 0x8, addend: 0x0, symName: __ZNSt3__16vectorIP7CommandNS_9allocatorIS2_EEE9push_backB8ne180100EOS2_, symObjAddr: 0x3FD0, symBinAddr: 0x100038170, symSize: 0x230 }
  - { offsetInCU: 0x9B44, offset: 0x2545C, size: 0x8, addend: 0x0, symName: __ZNSt3__16vectorINS_12basic_stringIcNS_11char_traitsIcEENS_9allocatorIcEEEENS4_IS6_EEEC1ERKS8_, symObjAddr: 0x4200, symBinAddr: 0x1000383A0, symSize: 0x60 }
  - { offsetInCU: 0x9B7E, offset: 0x25496, size: 0x8, addend: 0x0, symName: __ZNKSt3__111__wrap_iterIPP7CommandE4baseB8ne180100Ev, symObjAddr: 0x4350, symBinAddr: 0x1000384A0, symSize: 0x80 }
  - { offsetInCU: 0x9BA3, offset: 0x254BB, size: 0x8, addend: 0x0, symName: __ZN7CommandD2Ev, symObjAddr: 0x43D0, symBinAddr: 0x100038520, symSize: 0x90 }
  - { offsetInCU: 0x9BD6, offset: 0x254EE, size: 0x8, addend: 0x0, symName: __ZNSt3__16vectorIP7CommandNS_9allocatorIS2_EEEC2B8ne180100Ev, symObjAddr: 0x5CD0, symBinAddr: 0x1000385B0, symSize: 0x280 }
  - { offsetInCU: 0x9C05, offset: 0x2551D, size: 0x8, addend: 0x0, symName: __ZNSt3__117__compressed_pairIPP7CommandNS_9allocatorIS2_EEEC1B8ne180100IDnNS_18__default_init_tagEEEOT_OT0_, symObjAddr: 0x5F50, symBinAddr: 0x100038830, symSize: 0x60 }
  - { offsetInCU: 0x9C5C, offset: 0x25574, size: 0x8, addend: 0x0, symName: __ZNSt3__117__compressed_pairIPP7CommandNS_9allocatorIS2_EEEC2B8ne180100IDnNS_18__default_init_tagEEEOT_OT0_, symObjAddr: 0x5FB0, symBinAddr: 0x100038890, symSize: 0xF0 }
  - { offsetInCU: 0x9CB3, offset: 0x255CB, size: 0x8, addend: 0x0, symName: __ZNSt3__122__compressed_pair_elemIPP7CommandLi0ELb0EEC2B8ne180100IDnvEEOT_, symObjAddr: 0x60A0, symBinAddr: 0x100038980, symSize: 0x80 }
  - { offsetInCU: 0x9CF4, offset: 0x2560C, size: 0x8, addend: 0x0, symName: __ZNSt3__122__compressed_pair_elemINS_9allocatorIP7CommandEELi1ELb1EEC2B8ne180100ENS_18__default_init_tagE, symObjAddr: 0x6120, symBinAddr: 0x100038A00, symSize: 0x60 }
  - { offsetInCU: 0x9D28, offset: 0x25640, size: 0x8, addend: 0x0, symName: __ZNSt3__19allocatorIP7CommandEC2B8ne180100Ev, symObjAddr: 0x6180, symBinAddr: 0x100038A60, symSize: 0x60 }
  - { offsetInCU: 0x9D51, offset: 0x25669, size: 0x8, addend: 0x0, symName: __ZNSt3__116__non_trivial_ifILb1ENS_9allocatorIP7CommandEEEC2B8ne180100Ev, symObjAddr: 0x61E0, symBinAddr: 0x100038AC0, symSize: 0x40 }
  - { offsetInCU: 0x9D7A, offset: 0x25692, size: 0x8, addend: 0x0, symName: __ZNSt3__16vectorIP7CommandNS_9allocatorIS2_EEED2B8ne180100Ev, symObjAddr: 0x6220, symBinAddr: 0x100038B00, symSize: 0x1E0 }
  - { offsetInCU: 0x9DA4, offset: 0x256BC, size: 0x8, addend: 0x0, symName: __ZNSt3__16vectorIP7CommandNS_9allocatorIS2_EEE16__destroy_vectorC1B8ne180100ERS5_, symObjAddr: 0x6400, symBinAddr: 0x100038CE0, symSize: 0x60 }
  - { offsetInCU: 0x9DDC, offset: 0x256F4, size: 0x8, addend: 0x0, symName: __ZNSt3__16vectorIP7CommandNS_9allocatorIS2_EEE16__destroy_vectorclB8ne180100Ev, symObjAddr: 0x6460, symBinAddr: 0x100038D40, symSize: 0x350 }
  - { offsetInCU: 0x9E01, offset: 0x25719, size: 0x8, addend: 0x0, symName: __ZNSt3__16vectorIP7CommandNS_9allocatorIS2_EEE16__destroy_vectorC2B8ne180100ERS5_, symObjAddr: 0x67B0, symBinAddr: 0x100039090, symSize: 0xC0 }
  - { offsetInCU: 0x9E39, offset: 0x25751, size: 0x8, addend: 0x0, symName: __ZNSt3__16vectorIP7CommandNS_9allocatorIS2_EEE7__clearB8ne180100Ev, symObjAddr: 0x6870, symBinAddr: 0x100039150, symSize: 0x80 }
  - { offsetInCU: 0x9E5E, offset: 0x25776, size: 0x8, addend: 0x0, symName: __ZNKSt3__16vectorIP7CommandNS_9allocatorIS2_EEE17__annotate_deleteB8ne180100Ev, symObjAddr: 0x68F0, symBinAddr: 0x1000391D0, symSize: 0x150 }
  - { offsetInCU: 0x9E83, offset: 0x2579B, size: 0x8, addend: 0x0, symName: __ZNSt3__116allocator_traitsINS_9allocatorIP7CommandEEE10deallocateB8ne180100ERS4_PS3_m, symObjAddr: 0x6A40, symBinAddr: 0x100039320, symSize: 0x40 }
  - { offsetInCU: 0x9EC5, offset: 0x257DD, size: 0x8, addend: 0x0, symName: __ZNSt3__16vectorIP7CommandNS_9allocatorIS2_EEE7__allocB8ne180100Ev, symObjAddr: 0x6A80, symBinAddr: 0x100039360, symSize: 0xB0 }
  - { offsetInCU: 0x9EEA, offset: 0x25802, size: 0x8, addend: 0x0, symName: __ZNKSt3__16vectorIP7CommandNS_9allocatorIS2_EEE8capacityB8ne180100Ev, symObjAddr: 0x6B30, symBinAddr: 0x100039410, symSize: 0x100 }
  - { offsetInCU: 0x9F0F, offset: 0x25827, size: 0x8, addend: 0x0, symName: __ZNSt3__16vectorIP7CommandNS_9allocatorIS2_EEE22__base_destruct_at_endB8ne180100EPS2_, symObjAddr: 0x6C30, symBinAddr: 0x100039510, symSize: 0x190 }
  - { offsetInCU: 0x9F52, offset: 0x2586A, size: 0x8, addend: 0x0, symName: __ZNSt3__116allocator_traitsINS_9allocatorIP7CommandEEE7destroyB8ne180100IS3_vEEvRS4_PT_, symObjAddr: 0x6DC0, symBinAddr: 0x1000396A0, symSize: 0x30 }
  - { offsetInCU: 0x9F8F, offset: 0x258A7, size: 0x8, addend: 0x0, symName: __ZNSt3__19allocatorIP7CommandE7destroyB8ne180100EPS2_, symObjAddr: 0x6E10, symBinAddr: 0x1000396F0, symSize: 0x40 }
  - { offsetInCU: 0x9FC2, offset: 0x258DA, size: 0x8, addend: 0x0, symName: __ZNKSt3__16vectorIP7CommandNS_9allocatorIS2_EEE31__annotate_contiguous_containerB8ne180100EPKvS7_, symObjAddr: 0x6E50, symBinAddr: 0x100039730, symSize: 0x100 }
  - { offsetInCU: 0xA023, offset: 0x2593B, size: 0x8, addend: 0x0, symName: __ZNKSt3__16vectorIP7CommandNS_9allocatorIS2_EEE4dataB8ne180100Ev, symObjAddr: 0x6F50, symBinAddr: 0x100039830, symSize: 0x80 }
  - { offsetInCU: 0xA048, offset: 0x25960, size: 0x8, addend: 0x0, symName: __ZNSt3__19allocatorIP7CommandE10deallocateB8ne180100EPS2_m, symObjAddr: 0x7090, symBinAddr: 0x1000398B0, symSize: 0x70 }
  - { offsetInCU: 0xA089, offset: 0x259A1, size: 0x8, addend: 0x0, symName: __ZNSt3__117__compressed_pairIPP7CommandNS_9allocatorIS2_EEE6secondB8ne180100Ev, symObjAddr: 0x7100, symBinAddr: 0x100039920, symSize: 0xD0 }
  - { offsetInCU: 0xA0AE, offset: 0x259C6, size: 0x8, addend: 0x0, symName: __ZNSt3__122__compressed_pair_elemINS_9allocatorIP7CommandEELi1ELb1EE5__getB8ne180100Ev, symObjAddr: 0x71D0, symBinAddr: 0x1000399F0, symSize: 0x60 }
  - { offsetInCU: 0xA0D3, offset: 0x259EB, size: 0x8, addend: 0x0, symName: __ZNKSt3__16vectorIP7CommandNS_9allocatorIS2_EEE9__end_capB8ne180100Ev, symObjAddr: 0x7230, symBinAddr: 0x100039A50, symSize: 0xC0 }
  - { offsetInCU: 0xA0F8, offset: 0x25A10, size: 0x8, addend: 0x0, symName: __ZNKSt3__117__compressed_pairIPP7CommandNS_9allocatorIS2_EEE5firstB8ne180100Ev, symObjAddr: 0x72F0, symBinAddr: 0x100039B10, symSize: 0xE0 }
  - { offsetInCU: 0xA11D, offset: 0x25A35, size: 0x8, addend: 0x0, symName: __ZNKSt3__122__compressed_pair_elemIPP7CommandLi0ELb0EE5__getB8ne180100Ev, symObjAddr: 0x73D0, symBinAddr: 0x100039BF0, symSize: 0x80 }
  - { offsetInCU: 0xA142, offset: 0x25A5A, size: 0x8, addend: 0x0, symName: __ZNSt3__16vectorIP7CommandNS_9allocatorIS2_EEE11__make_iterB8ne180100EPS2_, symObjAddr: 0x9220, symBinAddr: 0x100039C70, symSize: 0x1B0 }
  - { offsetInCU: 0xA178, offset: 0x25A90, size: 0x8, addend: 0x0, symName: __ZNSt3__111__wrap_iterIPP7CommandEC1B8ne180100ES3_, symObjAddr: 0x93D0, symBinAddr: 0x100039E20, symSize: 0x60 }
  - { offsetInCU: 0xA1AF, offset: 0x25AC7, size: 0x8, addend: 0x0, symName: __ZNSt3__111__wrap_iterIPP7CommandEC2B8ne180100ES3_, symObjAddr: 0x9430, symBinAddr: 0x100039E80, symSize: 0x90 }
  - { offsetInCU: 0xA1E6, offset: 0x25AFE, size: 0x8, addend: 0x0, symName: __ZNKSt3__16vectorIP7CommandNS_9allocatorIS2_EEE17__annotate_shrinkB8ne180100Em, symObjAddr: 0x94C0, symBinAddr: 0x100039F10, symSize: 0x150 }
  - { offsetInCU: 0xA24C, offset: 0x25B64, size: 0x8, addend: 0x0, symName: __ZNSt3__116allocator_traitsINS_9allocatorIcEEE37select_on_container_copy_constructionB8ne180100IS2_vvEES2_RKS2_, symObjAddr: 0x16600, symBinAddr: 0x10003A060, symSize: 0x20 }
  - { offsetInCU: 0xA27B, offset: 0x25B93, size: 0x8, addend: 0x0, symName: __ZNKSt3__112basic_stringIcNS_11char_traitsIcEENS_9allocatorIcEEE13get_allocatorB8ne180100Ev, symObjAddr: 0x16620, symBinAddr: 0x10003A080, symSize: 0x50 }
  - { offsetInCU: 0xA2A0, offset: 0x25BB8, size: 0x8, addend: 0x0, symName: __ZNSt3__112basic_stringIcNS_11char_traitsIcEENS_9allocatorIcEEEC1B8ne180100ENS_24__uninitialized_size_tagEmRKS4_, symObjAddr: 0x16670, symBinAddr: 0x10003A0D0, symSize: 0x60 }
  - { offsetInCU: 0xA2F2, offset: 0x25C0A, size: 0x8, addend: 0x0, symName: __ZNSt3__111char_traitsIcE4copyB8ne180100EPcPKcm, symObjAddr: 0x166D0, symBinAddr: 0x10003A130, symSize: 0x50 }
  - { offsetInCU: 0xA331, offset: 0x25C49, size: 0x8, addend: 0x0, symName: __ZNSt3__111char_traitsIcE6assignB8ne180100EPcmc, symObjAddr: 0x16720, symBinAddr: 0x10003A180, symSize: 0x1C0 }
  - { offsetInCU: 0xA376, offset: 0x25C8E, size: 0x8, addend: 0x0, symName: __ZNSt3__112basic_stringIcNS_11char_traitsIcEENS_9allocatorIcEEEC2B8ne180100ENS_24__uninitialized_size_tagEmRKS4_, symObjAddr: 0x16AC0, symBinAddr: 0x10003A340, symSize: 0x380 }
  - { offsetInCU: 0xA3FA, offset: 0x25D12, size: 0x8, addend: 0x0, symName: __ZNSt3__117__compressed_pairINS_12basic_stringIcNS_11char_traitsIcEENS_9allocatorIcEEE5__repES5_EC1B8ne180100INS_18__default_init_tagERKS5_EEOT_OT0_, symObjAddr: 0x16E40, symBinAddr: 0x10003A6C0, symSize: 0x60 }
  - { offsetInCU: 0xA451, offset: 0x25D69, size: 0x8, addend: 0x0, symName: __ZNKSt3__112basic_stringIcNS_11char_traitsIcEENS_9allocatorIcEEE20__throw_length_errorB8ne180100Ev, symObjAddr: 0x17010, symBinAddr: 0x10003A720, symSize: 0x70 }
  - { offsetInCU: 0xA476, offset: 0x25D8E, size: 0x8, addend: 0x0, symName: __ZNSt3__112basic_stringIcNS_11char_traitsIcEENS_9allocatorIcEEE13__fits_in_ssoB8ne180100Em, symObjAddr: 0x17080, symBinAddr: 0x10003A790, symSize: 0x20 }
  - { offsetInCU: 0xA49A, offset: 0x25DB2, size: 0x8, addend: 0x0, symName: __ZNSt3__112basic_stringIcNS_11char_traitsIcEENS_9allocatorIcEEE11__recommendB8ne180100Em, symObjAddr: 0x170A0, symBinAddr: 0x10003A7B0, symSize: 0x70 }
  - { offsetInCU: 0xA4CD, offset: 0x25DE5, size: 0x8, addend: 0x0, symName: __ZNSt3__116allocator_traitsINS_9allocatorIcEEE8allocateB8ne180100ERS2_m, symObjAddr: 0x17110, symBinAddr: 0x10003A820, symSize: 0x30 }
  - { offsetInCU: 0xA500, offset: 0x25E18, size: 0x8, addend: 0x0, symName: __ZNSt3__112basic_stringIcNS_11char_traitsIcEENS_9allocatorIcEEE16__begin_lifetimeB8ne180100EPcm, symObjAddr: 0x17140, symBinAddr: 0x10003A850, symSize: 0x20 }
  - { offsetInCU: 0xA533, offset: 0x25E4B, size: 0x8, addend: 0x0, symName: __ZNSt3__112basic_stringIcNS_11char_traitsIcEENS_9allocatorIcEEE14__set_long_capB8ne180100Em, symObjAddr: 0x17160, symBinAddr: 0x10003A870, symSize: 0x300 }
  - { offsetInCU: 0xA567, offset: 0x25E7F, size: 0x8, addend: 0x0, symName: __ZNSt3__112basic_stringIcNS_11char_traitsIcEENS_9allocatorIcEEE18__set_long_pointerB8ne180100EPc, symObjAddr: 0x17460, symBinAddr: 0x10003AB70, symSize: 0x190 }
  - { offsetInCU: 0xA59B, offset: 0x25EB3, size: 0x8, addend: 0x0, symName: __ZNSt3__117__compressed_pairINS_12basic_stringIcNS_11char_traitsIcEENS_9allocatorIcEEE5__repES5_EC2B8ne180100INS_18__default_init_tagERKS5_EEOT_OT0_, symObjAddr: 0x17780, symBinAddr: 0x10003AD00, symSize: 0xE0 }
  - { offsetInCU: 0xA5F2, offset: 0x25F0A, size: 0x8, addend: 0x0, symName: __ZNSt3__122__compressed_pair_elemINS_9allocatorIcEELi1ELb1EEC2B8ne180100IRKS2_vEEOT_, symObjAddr: 0x17860, symBinAddr: 0x10003ADE0, symSize: 0x40 }
  - { offsetInCU: 0xA633, offset: 0x25F4B, size: 0x8, addend: 0x0, symName: __ZNSt3__112basic_stringIcNS_11char_traitsIcEENS_9allocatorIcEEE10__align_itB8ne180100ILm8EEEmm, symObjAddr: 0x17950, symBinAddr: 0x10003AE20, symSize: 0x20 }
  - { offsetInCU: 0xA661, offset: 0x25F79, size: 0x8, addend: 0x0, symName: __ZNSt3__19allocatorIcE8allocateB8ne180100Em, symObjAddr: 0x17970, symBinAddr: 0x10003AE40, symSize: 0xB0 }
  - { offsetInCU: 0xA6B7, offset: 0x25FCF, size: 0x8, addend: 0x0, symName: __ZNKSt3__114__copy_trivialclB8ne180100IKccLi0EEENS_4pairIPT_PT0_EES5_S5_S7_, symObjAddr: 0x18B20, symBinAddr: 0x10003BFF0, symSize: 0x250 }
  - { offsetInCU: 0xA740, offset: 0x26058, size: 0x8, addend: 0x0, symName: __ZNSt3__14pairIPKcS2_EC1B8ne180100IS2_S2_Li0EEEOT_OT0_, symObjAddr: 0x19270, symBinAddr: 0x10003C740, symSize: 0x60 }
  - { offsetInCU: 0xA79D, offset: 0x260B5, size: 0x8, addend: 0x0, symName: __ZNSt3__14pairIPKcS2_EC2B8ne180100IS2_S2_Li0EEEOT_OT0_, symObjAddr: 0x192D0, symBinAddr: 0x10003C7A0, symSize: 0x190 }
  - { offsetInCU: 0xA7FA, offset: 0x26112, size: 0x8, addend: 0x0, symName: __ZNSt3__118__unwrap_iter_implIPKcLb1EE8__unwrapB8ne180100ES2_, symObjAddr: 0x19460, symBinAddr: 0x10003C930, symSize: 0x30 }
  - { offsetInCU: 0xA827, offset: 0x2613F, size: 0x8, addend: 0x0, symName: __ZNSt3__14pairIPKcPcEC1B8ne180100IRS2_S3_Li0EEEOT_OT0_, symObjAddr: 0x19AC0, symBinAddr: 0x10003CF90, symSize: 0x60 }
  - { offsetInCU: 0xA884, offset: 0x2619C, size: 0x8, addend: 0x0, symName: __ZNSt3__14pairIPKcPcEC2B8ne180100IRS2_S3_Li0EEEOT_OT0_, symObjAddr: 0x19B20, symBinAddr: 0x10003CFF0, symSize: 0x190 }
  - { offsetInCU: 0xA8E1, offset: 0x261F9, size: 0x8, addend: 0x0, symName: __ZNSt3__118__unwrap_iter_implIPcLb1EE8__unwrapB8ne180100ES1_, symObjAddr: 0x19CB0, symBinAddr: 0x10003D180, symSize: 0x30 }
  - { offsetInCU: 0xA904, offset: 0x2621C, size: 0x8, addend: 0x0, symName: __ZNSt3__14pairIPKcPcEC1B8ne180100IS2_S3_Li0EEEOT_OT0_, symObjAddr: 0x19CE0, symBinAddr: 0x10003D1B0, symSize: 0x60 }
  - { offsetInCU: 0xA961, offset: 0x26279, size: 0x8, addend: 0x0, symName: __ZNSt3__14pairIPKcPcEC2B8ne180100IS2_S3_Li0EEEOT_OT0_, symObjAddr: 0x19D40, symBinAddr: 0x10003D210, symSize: 0x190 }
  - { offsetInCU: 0xA9BE, offset: 0x262D6, size: 0x8, addend: 0x0, symName: __ZNSt3__118__unwrap_iter_implIPKcLb1EE8__rewrapB8ne180100ES2_S2_, symObjAddr: 0x19F20, symBinAddr: 0x10003D3F0, symSize: 0xB0 }
  - { offsetInCU: 0xA9EF, offset: 0x26307, size: 0x8, addend: 0x0, symName: __ZNSt3__118__unwrap_iter_implIPcLb1EE8__rewrapB8ne180100ES1_S1_, symObjAddr: 0x19FD0, symBinAddr: 0x10003D4A0, symSize: 0xB0 }
  - { offsetInCU: 0xAA20, offset: 0x26338, size: 0x8, addend: 0x0, symName: __ZNSt3__16vectorINS_12basic_stringIcNS_11char_traitsIcEENS_9allocatorIcEEEENS4_IS6_EEEC2ERKS8_, symObjAddr: 0x1A360, symBinAddr: 0x10003D730, symSize: 0x410 }
  - { offsetInCU: 0xAA5C, offset: 0x26374, size: 0x8, addend: 0x0, symName: __ZNSt3__116allocator_traitsINS_9allocatorINS_12basic_stringIcNS_11char_traitsIcEENS1_IcEEEEEEE37select_on_container_copy_constructionB8ne180100IS7_vvEES7_RKS7_, symObjAddr: 0x1A770, symBinAddr: 0x10003DB40, symSize: 0x20 }
  - { offsetInCU: 0xAA90, offset: 0x263A8, size: 0x8, addend: 0x0, symName: __ZNSt3__117__compressed_pairIPNS_12basic_stringIcNS_11char_traitsIcEENS_9allocatorIcEEEENS4_IS6_EEEC1B8ne180100IDnS8_EEOT_OT0_, symObjAddr: 0x1A790, symBinAddr: 0x10003DB60, symSize: 0x60 }
  - { offsetInCU: 0xAAE7, offset: 0x263FF, size: 0x8, addend: 0x0, symName: __ZNSt3__16vectorINS_12basic_stringIcNS_11char_traitsIcEENS_9allocatorIcEEEENS4_IS6_EEE16__init_with_sizeB8ne180100IPS6_SA_EEvT_T0_m, symObjAddr: 0x1A7F0, symBinAddr: 0x10003DBC0, symSize: 0x310 }
  - { offsetInCU: 0xAB62, offset: 0x2647A, size: 0x8, addend: 0x0, symName: __ZNSt3__117__compressed_pairIPNS_12basic_stringIcNS_11char_traitsIcEENS_9allocatorIcEEEENS4_IS6_EEEC2B8ne180100IDnS8_EEOT_OT0_, symObjAddr: 0x1AB00, symBinAddr: 0x10003DED0, symSize: 0x110 }
  - { offsetInCU: 0xABB9, offset: 0x264D1, size: 0x8, addend: 0x0, symName: __ZNSt3__122__compressed_pair_elemINS_9allocatorINS_12basic_stringIcNS_11char_traitsIcEENS1_IcEEEEEELi1ELb1EEC2B8ne180100IS7_vEEOT_, symObjAddr: 0x1AC10, symBinAddr: 0x10003DFE0, symSize: 0x40 }
  - { offsetInCU: 0xABFA, offset: 0x26512, size: 0x8, addend: 0x0, symName: __ZNSt3__128__exception_guard_exceptionsINS_6vectorINS_12basic_stringIcNS_11char_traitsIcEENS_9allocatorIcEEEENS5_IS7_EEE16__destroy_vectorEE10__completeB8ne180100Ev, symObjAddr: 0x1B750, symBinAddr: 0x10003E240, symSize: 0xA0 }
  - { offsetInCU: 0xAC1F, offset: 0x26537, size: 0x8, addend: 0x0, symName: __ZNSt3__128__exception_guard_exceptionsINS_6vectorINS_12basic_stringIcNS_11char_traitsIcEENS_9allocatorIcEEEENS5_IS7_EEE16__destroy_vectorEED1B8ne180100Ev, symObjAddr: 0x1B7F0, symBinAddr: 0x10003E2E0, symSize: 0x50 }
  - { offsetInCU: 0xAC48, offset: 0x26560, size: 0x8, addend: 0x0, symName: __ZNSt3__128__exception_guard_exceptionsINS_6vectorINS_12basic_stringIcNS_11char_traitsIcEENS_9allocatorIcEEEENS5_IS7_EEE16__destroy_vectorEEC1B8ne180100ESA_, symObjAddr: 0x1B840, symBinAddr: 0x10003E330, symSize: 0x1E0 }
  - { offsetInCU: 0xAC84, offset: 0x2659C, size: 0x8, addend: 0x0, symName: __ZNSt3__128__exception_guard_exceptionsINS_6vectorINS_12basic_stringIcNS_11char_traitsIcEENS_9allocatorIcEEEENS5_IS7_EEE16__destroy_vectorEEC2B8ne180100ESA_, symObjAddr: 0x1BA20, symBinAddr: 0x10003E510, symSize: 0x210 }
  - { offsetInCU: 0xACC0, offset: 0x265D8, size: 0x8, addend: 0x0, symName: __ZNSt3__128__exception_guard_exceptionsINS_6vectorINS_12basic_stringIcNS_11char_traitsIcEENS_9allocatorIcEEEENS5_IS7_EEE16__destroy_vectorEED2B8ne180100Ev, symObjAddr: 0x1E220, symBinAddr: 0x10003E720, symSize: 0x100 }
  - { offsetInCU: 0xACE9, offset: 0x26601, size: 0x8, addend: 0x0, symName: __ZNSt3__16vectorIP7CommandNS_9allocatorIS2_EEE9__end_capB8ne180100Ev, symObjAddr: 0x1E320, symBinAddr: 0x10003E820, symSize: 0xC0 }
  - { offsetInCU: 0xAD13, offset: 0x2662B, size: 0x8, addend: 0x0, symName: __ZNSt3__16vectorIP7CommandNS_9allocatorIS2_EEE22__construct_one_at_endB8ne180100IJS2_EEEvDpOT_, symObjAddr: 0x1E3E0, symBinAddr: 0x10003E8E0, symSize: 0x450 }
  - { offsetInCU: 0xAD66, offset: 0x2667E, size: 0x8, addend: 0x0, symName: __ZNSt3__16vectorIP7CommandNS_9allocatorIS2_EEE21__push_back_slow_pathIS2_EEPS2_OT_, symObjAddr: 0x1E830, symBinAddr: 0x10003ED30, symSize: 0x540 }
  - { offsetInCU: 0xADCA, offset: 0x266E2, size: 0x8, addend: 0x0, symName: __ZNSt3__117__compressed_pairIPP7CommandNS_9allocatorIS2_EEE5firstB8ne180100Ev, symObjAddr: 0x1ED70, symBinAddr: 0x10003F270, symSize: 0xE0 }
  - { offsetInCU: 0xADEF, offset: 0x26707, size: 0x8, addend: 0x0, symName: __ZNSt3__122__compressed_pair_elemIPP7CommandLi0ELb0EE5__getB8ne180100Ev, symObjAddr: 0x1EE50, symBinAddr: 0x10003F350, symSize: 0x80 }
  - { offsetInCU: 0xAE2D, offset: 0x26745, size: 0x8, addend: 0x0, symName: __ZNSt3__16vectorIP7CommandNS_9allocatorIS2_EEE21_ConstructTransactionC1B8ne180100ERS5_m, symObjAddr: 0x1EED0, symBinAddr: 0x10003F3D0, symSize: 0x60 }
  - { offsetInCU: 0xAE74, offset: 0x2678C, size: 0x8, addend: 0x0, symName: __ZNSt3__116allocator_traitsINS_9allocatorIP7CommandEEE9constructB8ne180100IS3_JS3_EvEEvRS4_PT_DpOT0_, symObjAddr: 0x1EF30, symBinAddr: 0x10003F430, symSize: 0x80 }
  - { offsetInCU: 0xAECB, offset: 0x267E3, size: 0x8, addend: 0x0, symName: __ZNSt3__16vectorIP7CommandNS_9allocatorIS2_EEE21_ConstructTransactionD1B8ne180100Ev, symObjAddr: 0x1EFB0, symBinAddr: 0x10003F4B0, symSize: 0x50 }
  - { offsetInCU: 0xAEF4, offset: 0x2680C, size: 0x8, addend: 0x0, symName: __ZNSt3__16vectorIP7CommandNS_9allocatorIS2_EEE21_ConstructTransactionC2B8ne180100ERS5_m, symObjAddr: 0x1F000, symBinAddr: 0x10003F500, symSize: 0x2B0 }
  - { offsetInCU: 0xAF3B, offset: 0x26853, size: 0x8, addend: 0x0, symName: __ZNKSt3__16vectorIP7CommandNS_9allocatorIS2_EEE19__annotate_increaseB8ne180100Em, symObjAddr: 0x1F2B0, symBinAddr: 0x10003F7B0, symSize: 0x1C0 }
  - { offsetInCU: 0xAF6F, offset: 0x26887, size: 0x8, addend: 0x0, symName: __ZNSt3__19allocatorIP7CommandE9constructB8ne180100IS2_JS2_EEEvPT_DpOT0_, symObjAddr: 0x1F470, symBinAddr: 0x10003F970, symSize: 0x110 }
  - { offsetInCU: 0xAFC4, offset: 0x268DC, size: 0x8, addend: 0x0, symName: __ZNSt3__16vectorIP7CommandNS_9allocatorIS2_EEE21_ConstructTransactionD2B8ne180100Ev, symObjAddr: 0x1F580, symBinAddr: 0x10003FA80, symSize: 0x2E0 }
  - { offsetInCU: 0xAFEC, offset: 0x26904, size: 0x8, addend: 0x0, symName: __ZNKSt3__16vectorIP7CommandNS_9allocatorIS2_EEE11__recommendB8ne180100Em, symObjAddr: 0x1F860, symBinAddr: 0x10003FD60, symSize: 0x390 }
  - { offsetInCU: 0xB047, offset: 0x2695F, size: 0x8, addend: 0x0, symName: __ZNSt3__114__split_bufferIP7CommandRNS_9allocatorIS2_EEEC1EmmS5_, symObjAddr: 0x1FBF0, symBinAddr: 0x1000400F0, symSize: 0x70 }
  - { offsetInCU: 0xB09C, offset: 0x269B4, size: 0x8, addend: 0x0, symName: __ZNSt3__114__split_bufferIP7CommandRNS_9allocatorIS2_EEED1Ev, symObjAddr: 0x20570, symBinAddr: 0x100040A70, symSize: 0x50 }
  - { offsetInCU: 0xB0C6, offset: 0x269DE, size: 0x8, addend: 0x0, symName: __ZNKSt3__16vectorIP7CommandNS_9allocatorIS2_EEE8max_sizeEv, symObjAddr: 0x205C0, symBinAddr: 0x100040AC0, symSize: 0x2F0 }
  - { offsetInCU: 0xB0EE, offset: 0x26A06, size: 0x8, addend: 0x0, symName: __ZNKSt3__16vectorIP7CommandNS_9allocatorIS2_EEE20__throw_length_errorB8ne180100Ev, symObjAddr: 0x208B0, symBinAddr: 0x100040DB0, symSize: 0x70 }
  - { offsetInCU: 0xB11D, offset: 0x26A35, size: 0x8, addend: 0x0, symName: __ZNSt3__116allocator_traitsINS_9allocatorIP7CommandEEE8max_sizeB8ne180100IS4_vEEmRKS4_, symObjAddr: 0x20920, symBinAddr: 0x100040E20, symSize: 0x30 }
  - { offsetInCU: 0xB14B, offset: 0x26A63, size: 0x8, addend: 0x0, symName: __ZNKSt3__16vectorIP7CommandNS_9allocatorIS2_EEE7__allocB8ne180100Ev, symObjAddr: 0x20950, symBinAddr: 0x100040E50, symSize: 0xB0 }
  - { offsetInCU: 0xB170, offset: 0x26A88, size: 0x8, addend: 0x0, symName: __ZNKSt3__19allocatorIP7CommandE8max_sizeB8ne180100Ev, symObjAddr: 0x20A00, symBinAddr: 0x100040F00, symSize: 0x40 }
  - { offsetInCU: 0xB195, offset: 0x26AAD, size: 0x8, addend: 0x0, symName: __ZNKSt3__117__compressed_pairIPP7CommandNS_9allocatorIS2_EEE6secondB8ne180100Ev, symObjAddr: 0x20A40, symBinAddr: 0x100040F40, symSize: 0xD0 }
  - { offsetInCU: 0xB1BA, offset: 0x26AD2, size: 0x8, addend: 0x0, symName: __ZNKSt3__122__compressed_pair_elemINS_9allocatorIP7CommandEELi1ELb1EE5__getB8ne180100Ev, symObjAddr: 0x20B10, symBinAddr: 0x100041010, symSize: 0x60 }
  - { offsetInCU: 0xB1DF, offset: 0x26AF7, size: 0x8, addend: 0x0, symName: __ZNSt3__114__split_bufferIP7CommandRNS_9allocatorIS2_EEEC2EmmS5_, symObjAddr: 0x20B70, symBinAddr: 0x100041070, symSize: 0x6C0 }
  - { offsetInCU: 0xB259, offset: 0x26B71, size: 0x8, addend: 0x0, symName: __ZNSt3__117__compressed_pairIPP7CommandRNS_9allocatorIS2_EEEC1B8ne180100IDnS6_EEOT_OT0_, symObjAddr: 0x21230, symBinAddr: 0x100041730, symSize: 0x60 }
  - { offsetInCU: 0xB2B0, offset: 0x26BC8, size: 0x8, addend: 0x0, symName: __ZNSt3__114__split_bufferIP7CommandRNS_9allocatorIS2_EEE7__allocB8ne180100Ev, symObjAddr: 0x214A0, symBinAddr: 0x1000419A0, symSize: 0xB0 }
  - { offsetInCU: 0xB2D5, offset: 0x26BED, size: 0x8, addend: 0x0, symName: __ZNSt3__114__split_bufferIP7CommandRNS_9allocatorIS2_EEE9__end_capB8ne180100Ev, symObjAddr: 0x21550, symBinAddr: 0x100041A50, symSize: 0xC0 }
  - { offsetInCU: 0xB2FA, offset: 0x26C12, size: 0x8, addend: 0x0, symName: __ZNSt3__117__compressed_pairIPP7CommandRNS_9allocatorIS2_EEEC2B8ne180100IDnS6_EEOT_OT0_, symObjAddr: 0x21610, symBinAddr: 0x100041B10, symSize: 0x130 }
  - { offsetInCU: 0xB351, offset: 0x26C69, size: 0x8, addend: 0x0, symName: __ZNSt3__122__compressed_pair_elemIRNS_9allocatorIP7CommandEELi1ELb0EEC2B8ne180100IS5_vEEOT_, symObjAddr: 0x21740, symBinAddr: 0x100041C40, symSize: 0xA0 }
  - { offsetInCU: 0xB392, offset: 0x26CAA, size: 0x8, addend: 0x0, symName: __ZNSt3__19allocatorIP7CommandE8allocateB8ne180100Em, symObjAddr: 0x217E0, symBinAddr: 0x100041CE0, symSize: 0xB0 }
  - { offsetInCU: 0xB3C5, offset: 0x26CDD, size: 0x8, addend: 0x0, symName: __ZNSt3__117__compressed_pairIPP7CommandRNS_9allocatorIS2_EEE6secondB8ne180100Ev, symObjAddr: 0x21890, symBinAddr: 0x100041D90, symSize: 0xD0 }
  - { offsetInCU: 0xB3EA, offset: 0x26D02, size: 0x8, addend: 0x0, symName: __ZNSt3__122__compressed_pair_elemIRNS_9allocatorIP7CommandEELi1ELb0EE5__getB8ne180100Ev, symObjAddr: 0x21960, symBinAddr: 0x100041E60, symSize: 0xA0 }
  - { offsetInCU: 0xB40F, offset: 0x26D27, size: 0x8, addend: 0x0, symName: __ZNSt3__117__compressed_pairIPP7CommandRNS_9allocatorIS2_EEE5firstB8ne180100Ev, symObjAddr: 0x21A00, symBinAddr: 0x100041F00, symSize: 0xE0 }
  - { offsetInCU: 0xB434, offset: 0x26D4C, size: 0x8, addend: 0x0, symName: __ZNSt3__116reverse_iteratorIPP7CommandEC1B8ne180100ES3_, symObjAddr: 0x220F0, symBinAddr: 0x1000425F0, symSize: 0x60 }
  - { offsetInCU: 0xB46B, offset: 0x26D83, size: 0x8, addend: 0x0, symName: __ZNKSt3__116reverse_iteratorIPP7CommandE4baseB8ne180100Ev, symObjAddr: 0x22150, symBinAddr: 0x100042650, symSize: 0x80 }
  - { offsetInCU: 0xB490, offset: 0x26DA8, size: 0x8, addend: 0x0, symName: __ZNKSt3__16vectorIP7CommandNS_9allocatorIS2_EEE14__annotate_newB8ne180100Em, symObjAddr: 0x22340, symBinAddr: 0x100042840, symSize: 0x150 }
  - { offsetInCU: 0xB4E7, offset: 0x26DFF, size: 0x8, addend: 0x0, symName: __ZNKSt3__111__move_loopINS_17_ClassicAlgPolicyEEclB8ne180100INS_16reverse_iteratorIPP7CommandEES8_S8_EENS_4pairIT_T1_EESA_T0_SB_, symObjAddr: 0x248A0, symBinAddr: 0x100044DA0, symSize: 0x490 }
  - { offsetInCU: 0xB563, offset: 0x26E7B, size: 0x8, addend: 0x0, symName: __ZNSt3__18_IterOpsINS_17_ClassicAlgPolicyEE11__iter_moveB8ne180100IRNS_16reverse_iteratorIPP7CommandEELi0EEEDTclsr3stdE4movedeclsr3stdE7declvalIRT_EEEEOSA_, symObjAddr: 0x25BD0, symBinAddr: 0x1000460D0, symSize: 0xA0 }
  - { offsetInCU: 0xB595, offset: 0x26EAD, size: 0x8, addend: 0x0, symName: __ZNKSt3__116reverse_iteratorIPP7CommandEdeB8ne180100Ev, symObjAddr: 0x25C70, symBinAddr: 0x100046170, symSize: 0x110 }
  - { offsetInCU: 0xB5C8, offset: 0x26EE0, size: 0x8, addend: 0x0, symName: __ZNSt3__116reverse_iteratorIPP7CommandEppB8ne180100Ev, symObjAddr: 0x25D80, symBinAddr: 0x100046280, symSize: 0x130 }
  - { offsetInCU: 0xB5ED, offset: 0x26F05, size: 0x8, addend: 0x0, symName: __ZNSt3__18_IterOpsINS_17_ClassicAlgPolicyEE25__validate_iter_referenceB8ne180100IRNS_16reverse_iteratorIPP7CommandEEEEvv, symObjAddr: 0x25EB0, symBinAddr: 0x1000463B0, symSize: 0x10 }
  - { offsetInCU: 0xB60B, offset: 0x26F23, size: 0x8, addend: 0x0, symName: __ZNSt3__118__unwrap_iter_implINS_16reverse_iteratorIPP7CommandEELb0EE8__unwrapB8ne180100ES5_, symObjAddr: 0x25EC0, symBinAddr: 0x1000463C0, symSize: 0x230 }
  - { offsetInCU: 0xB637, offset: 0x26F4F, size: 0x8, addend: 0x0, symName: __ZNSt3__14pairINS_16reverse_iteratorIPP7CommandEES5_EC1B8ne180100IS5_S5_Li0EEEOT_OT0_, symObjAddr: 0x260F0, symBinAddr: 0x1000465F0, symSize: 0x60 }
  - { offsetInCU: 0xB694, offset: 0x26FAC, size: 0x8, addend: 0x0, symName: __ZNSt3__14pairINS_16reverse_iteratorIPP7CommandEES5_EC2B8ne180100IS5_S5_Li0EEEOT_OT0_, symObjAddr: 0x26150, symBinAddr: 0x100046650, symSize: 0x80 }
  - { offsetInCU: 0xB6F1, offset: 0x27009, size: 0x8, addend: 0x0, symName: __ZNSt3__118__unwrap_iter_implINS_16reverse_iteratorIPP7CommandEELb0EE8__rewrapB8ne180100ES5_S5_, symObjAddr: 0x261D0, symBinAddr: 0x1000466D0, symSize: 0x2D0 }
  - { offsetInCU: 0xB727, offset: 0x2703F, size: 0x8, addend: 0x0, symName: __ZNSt3__116reverse_iteratorIPP7CommandEC2B8ne180100ES3_, symObjAddr: 0x264A0, symBinAddr: 0x1000469A0, symSize: 0xD0 }
  - { offsetInCU: 0xB75E, offset: 0x27076, size: 0x8, addend: 0x0, symName: __ZNSt3__114__split_bufferIP7CommandRNS_9allocatorIS2_EEED2Ev, symObjAddr: 0x26570, symBinAddr: 0x100046A70, symSize: 0x120 }
  - { offsetInCU: 0xB789, offset: 0x270A1, size: 0x8, addend: 0x0, symName: __ZNSt3__114__split_bufferIP7CommandRNS_9allocatorIS2_EEE5clearB8ne180100Ev, symObjAddr: 0x26690, symBinAddr: 0x100046B90, symSize: 0x90 }
  - { offsetInCU: 0xB7AE, offset: 0x270C6, size: 0x8, addend: 0x0, symName: __ZNKSt3__114__split_bufferIP7CommandRNS_9allocatorIS2_EEE8capacityB8ne180100Ev, symObjAddr: 0x26720, symBinAddr: 0x100046C20, symSize: 0x100 }
  - { offsetInCU: 0xB7D3, offset: 0x270EB, size: 0x8, addend: 0x0, symName: __ZNSt3__114__split_bufferIP7CommandRNS_9allocatorIS2_EEE17__destruct_at_endB8ne180100EPS2_, symObjAddr: 0x26820, symBinAddr: 0x100046D20, symSize: 0x60 }
  - { offsetInCU: 0xB805, offset: 0x2711D, size: 0x8, addend: 0x0, symName: __ZNSt3__114__split_bufferIP7CommandRNS_9allocatorIS2_EEE17__destruct_at_endB8ne180100EPS2_NS_17integral_constantIbLb0EEE, symObjAddr: 0x26880, symBinAddr: 0x100046D80, symSize: 0x1B0 }
  - { offsetInCU: 0xB845, offset: 0x2715D, size: 0x8, addend: 0x0, symName: __ZNKSt3__114__split_bufferIP7CommandRNS_9allocatorIS2_EEE9__end_capB8ne180100Ev, symObjAddr: 0x26A30, symBinAddr: 0x100046F30, symSize: 0xC0 }
  - { offsetInCU: 0xB86A, offset: 0x27182, size: 0x8, addend: 0x0, symName: __ZNKSt3__117__compressed_pairIPP7CommandRNS_9allocatorIS2_EEE5firstB8ne180100Ev, symObjAddr: 0x26AF0, symBinAddr: 0x100046FF0, symSize: 0xE0 }
...
